

Microchip MPLAB XC8 Assembler V2.40 build 20220703182018 
                                                                                               Mon Mar 13 17:27:50 2023

Microchip MPLAB XC8 C Compiler v2.40 (Free license) build 20220703182018 Og1 
     1                           	processor	16F18346
     2                           	pagewidth 120
     3                           	opt	flic
     4                           	psect	idataBANK0,global,class=CODE,delta=2,noexec
     5                           	psect	idataBANK1,global,class=CODE,delta=2,noexec
     6                           	psect	idataBANK2,global,class=CODE,delta=2,noexec
     7                           	psect	idataBANK3,global,class=CODE,delta=2,noexec
     8                           	psect	stringtext1,global,class=STRCODE,delta=2,noexec
     9                           	psect	stringtext2,global,class=STRCODE,delta=2,noexec
    10                           	psect	stringtext3,global,class=STRCODE,delta=2,noexec
    11                           	psect	stringtext4,global,class=STRCODE,delta=2,noexec
    12                           	psect	cinit,global,class=CODE,merge=1,delta=2
    13                           	psect	bssCOMMON,global,class=COMMON,space=1,delta=1,noexec
    14                           	psect	bssBANK0,global,class=BANK0,space=1,delta=1,noexec
    15                           	psect	dataBANK0,global,class=BANK0,space=1,delta=1,noexec
    16                           	psect	bssBANK1,global,class=BANK1,space=1,delta=1,noexec
    17                           	psect	dataBANK1,global,class=BANK1,space=1,delta=1,noexec
    18                           	psect	bssBANK2,global,class=BANK2,space=1,delta=1,noexec
    19                           	psect	dataBANK2,global,class=BANK2,space=1,delta=1,noexec
    20                           	psect	bssBANK3,global,class=BANK3,space=1,delta=1,noexec
    21                           	psect	dataBANK3,global,class=BANK3,space=1,delta=1,noexec
    22                           	psect	inittext,global,class=CODE,delta=2
    23                           	psect	clrtext,global,class=CODE,delta=2
    24                           	psect	cstackCOMMON,global,class=COMMON,space=1,delta=1,noexec
    25                           	psect	cstackBANK0,global,class=BANK0,space=1,delta=1,noexec
    26                           	psect	maintext,global,class=CODE,merge=1,split=1,delta=2
    27                           	psect	text1,local,class=CODE,merge=1,delta=2
    28                           	psect	text2,local,class=CODE,merge=1,delta=2
    29                           	psect	text3,local,class=CODE,merge=1,delta=2
    30                           	psect	text4,local,class=CODE,merge=1,delta=2,group=1
    31                           	psect	text5,local,class=CODE,merge=1,delta=2
    32                           	psect	text6,local,class=CODE,merge=1,delta=2
    33                           	psect	text7,local,class=CODE,merge=1,delta=2,group=1
    34                           	psect	text8,local,class=CODE,merge=1,delta=2
    35                           	psect	text9,local,class=CODE,merge=1,delta=2
    36                           	psect	text10,local,class=CODE,merge=1,delta=2
    37                           	psect	text11,local,class=CODE,merge=1,delta=2
    38                           	psect	text12,local,class=CODE,merge=1,delta=2
    39                           	psect	text13,local,class=CODE,merge=1,delta=2
    40                           	psect	text14,local,class=CODE,merge=1,delta=2
    41                           	psect	text15,local,class=CODE,merge=1,delta=2
    42                           	psect	text16,local,class=CODE,merge=1,delta=2
    43                           	psect	text17,local,class=CODE,merge=1,delta=2
    44                           	psect	text18,local,class=CODE,merge=1,delta=2
    45                           	psect	text19,local,class=CODE,merge=1,delta=2
    46                           	psect	text20,local,class=CODE,merge=1,delta=2
    47                           	psect	text21,local,class=CODE,merge=1,delta=2
    48                           	psect	text22,local,class=CODE,merge=1,delta=2
    49                           	psect	text23,local,class=CODE,merge=1,delta=2
    50                           	psect	text24,local,class=CODE,merge=1,delta=2
    51                           	psect	text25,local,class=CODE,merge=1,delta=2
    52                           	psect	text26,local,class=CODE,merge=1,delta=2
    53                           	psect	text27,local,class=CODE,merge=1,delta=2
    54                           	psect	text28,local,class=CODE,merge=1,delta=2
    55                           	psect	text29,local,class=CODE,merge=1,delta=2
    56                           	psect	text30,local,class=CODE,merge=1,delta=2
    57                           	psect	text31,local,class=CODE,merge=1,delta=2,group=1
    58                           	psect	text32,local,class=CODE,merge=1,delta=2,group=1
    59                           	psect	text33,local,class=CODE,merge=1,delta=2
    60                           	psect	text34,local,class=CODE,merge=1,delta=2
    61                           	psect	text35,local,class=CODE,merge=1,delta=2
    62                           	psect	text36,local,class=CODE,merge=1,delta=2
    63                           	psect	text37,local,class=CODE,merge=1,delta=2
    64                           	psect	text38,local,class=CODE,merge=1,delta=2
    65                           	psect	text39,local,class=CODE,merge=1,delta=2
    66                           	psect	text40,local,class=CODE,merge=1,delta=2
    67                           	psect	text41,local,class=CODE,merge=1,delta=2
    68                           	psect	intentry,global,class=CODE,delta=2
    69                           	psect	text43,local,class=CODE,merge=1,delta=2
    70                           	psect	text44,local,class=CODE,merge=1,delta=2
    71                           	psect	text45,local,class=CODE,merge=1,delta=2
    72                           	psect	text46,local,class=CODE,merge=1,delta=2
    73                           	psect	config,global,abs,ovrld,class=CONFIG,space=4,delta=2,noexec
    74                           	dabs	1,0xCA0,32
    75                           	dabs	1,0xC20,80
    76                           	dabs	1,0xBA0,80
    77                           	dabs	1,0xB60,16
    78                           	dabs	1,0x2720,0,_UART
    79                           	dabs	1,0x7E,2
    80     0000                     
    81                           ; Version 2.35
    82                           ; Generated 13/04/2021 GMT
    83                           ; 
    84                           ; Copyright © 2021, Microchip Technology Inc. and its subsidiaries ("Microchip")
    85                           ; All rights reserved.
    86                           ; 
    87                           ; This software is developed by Microchip Technology Inc. and its subsidiaries ("Microch
      +                          ip").
    88                           ; 
    89                           ; Redistribution and use in source and binary forms, with or without modification, are
    90                           ; permitted provided that the following conditions are met:
    91                           ; 
    92                           ;     1. Redistributions of source code must retain the above copyright notice, this lis
      +                          t of
    93                           ;        conditions and the following disclaimer.
    94                           ; 
    95                           ;     2. Redistributions in binary form must reproduce the above copyright notice, this 
      +                          list
    96                           ;        of conditions and the following disclaimer in the documentation and/or other
    97                           ;        materials provided with the distribution. Publication is not required when
    98                           ;        this file is used in an embedded application.
    99                           ; 
   100                           ;     3. Microchip's name may not be used to endorse or promote products derived from th
      +                          is
   101                           ;        software without specific prior written permission.
   102                           ; 
   103                           ; THIS SOFTWARE IS PROVIDED BY MICROCHIP "AS IS" AND ANY EXPRESS OR IMPLIED WARRANTIES,
   104                           ; INCLUDING, BUT NOT LIMITED TO, THE IMPLIED WARRANTIES OF MERCHANTABILITY AND FITNESS F
      +                          OR
   105                           ; PURPOSE ARE DISCLAIMED.  IN NO EVENT SHALL MICROCHIP BE LIABLE FOR ANY DIRECT, INDIREC
      +                          T,
   106                           ; INCIDENTAL, SPECIAL, EXEMPLARY, OR CONSEQUENTIAL DAMAGES (INCLUDING BUT NOT LIMITED TO
   107                           ; PROCUREMENT OF SUBSTITUTE GOODS OR SERVICES; LOSS OF USE, DATA OR PROFITS; OR BUSINESS
   108                           ; INTERRUPTION) HOWSOEVER CAUSED AND ON ANY THEORY OF LIABILITY, WHETHER IN CONTRACT, ST
      +                          RICT
   109                           ; LIABILITY, OR TORT (INCLUDING NEGLIGENCE OR OTHERWISE) ARISING IN ANY WAY OUT OF THE U
      +                          SE OF
   110                           ; THIS SOFTWARE, EVEN IF ADVISED OF THE POSSIBILITY OF SUCH DAMAGE.
   111                           ; 
   112                           ; 
   113                           ; Code-generator required, PIC16F18346 Definitions
   114                           ; 
   115                           ; SFR Addresses
   116     0000                     	;# 
   117     0001                     	;# 
   118     0002                     	;# 
   119     0003                     	;# 
   120     0004                     	;# 
   121     0005                     	;# 
   122     0006                     	;# 
   123     0007                     	;# 
   124     0008                     	;# 
   125     0009                     	;# 
   126     000A                     	;# 
   127     000B                     	;# 
   128     000C                     	;# 
   129     000D                     	;# 
   130     000E                     	;# 
   131     0010                     	;# 
   132     0011                     	;# 
   133     0012                     	;# 
   134     0013                     	;# 
   135     0014                     	;# 
   136     0015                     	;# 
   137     0015                     	;# 
   138     0016                     	;# 
   139     0016                     	;# 
   140     0017                     	;# 
   141     0018                     	;# 
   142     0019                     	;# 
   143     0019                     	;# 
   144     001A                     	;# 
   145     001B                     	;# 
   146     001C                     	;# 
   147     001D                     	;# 
   148     001E                     	;# 
   149     001F                     	;# 
   150     008C                     	;# 
   151     008D                     	;# 
   152     008E                     	;# 
   153     0090                     	;# 
   154     0091                     	;# 
   155     0092                     	;# 
   156     0093                     	;# 
   157     0094                     	;# 
   158     0097                     	;# 
   159     009B                     	;# 
   160     009B                     	;# 
   161     009C                     	;# 
   162     009D                     	;# 
   163     009E                     	;# 
   164     009F                     	;# 
   165     010C                     	;# 
   166     010D                     	;# 
   167     010E                     	;# 
   168     0111                     	;# 
   169     0112                     	;# 
   170     0113                     	;# 
   171     0114                     	;# 
   172     0115                     	;# 
   173     0116                     	;# 
   174     0117                     	;# 
   175     0118                     	;# 
   176     0119                     	;# 
   177     018C                     	;# 
   178     018D                     	;# 
   179     018E                     	;# 
   180     0197                     	;# 
   181     0199                     	;# 
   182     0199                     	;# 
   183     0199                     	;# 
   184     019A                     	;# 
   185     019A                     	;# 
   186     019A                     	;# 
   187     019B                     	;# 
   188     019B                     	;# 
   189     019B                     	;# 
   190     019B                     	;# 
   191     019B                     	;# 
   192     019C                     	;# 
   193     019C                     	;# 
   194     019C                     	;# 
   195     019D                     	;# 
   196     019D                     	;# 
   197     019D                     	;# 
   198     019E                     	;# 
   199     019E                     	;# 
   200     019E                     	;# 
   201     019F                     	;# 
   202     019F                     	;# 
   203     019F                     	;# 
   204     019F                     	;# 
   205     019F                     	;# 
   206     020C                     	;# 
   207     020D                     	;# 
   208     020E                     	;# 
   209     0211                     	;# 
   210     0211                     	;# 
   211     0212                     	;# 
   212     0212                     	;# 
   213     0213                     	;# 
   214     0213                     	;# 
   215     0214                     	;# 
   216     0214                     	;# 
   217     0215                     	;# 
   218     0215                     	;# 
   219     0215                     	;# 
   220     0215                     	;# 
   221     0216                     	;# 
   222     0216                     	;# 
   223     0217                     	;# 
   224     0217                     	;# 
   225     0219                     	;# 
   226     021A                     	;# 
   227     021B                     	;# 
   228     021C                     	;# 
   229     021D                     	;# 
   230     021D                     	;# 
   231     021E                     	;# 
   232     021F                     	;# 
   233     028C                     	;# 
   234     028D                     	;# 
   235     028E                     	;# 
   236     0291                     	;# 
   237     0291                     	;# 
   238     0292                     	;# 
   239     0293                     	;# 
   240     0294                     	;# 
   241     0295                     	;# 
   242     0295                     	;# 
   243     0296                     	;# 
   244     0297                     	;# 
   245     0298                     	;# 
   246     029F                     	;# 
   247     030C                     	;# 
   248     030D                     	;# 
   249     030E                     	;# 
   250     0311                     	;# 
   251     0311                     	;# 
   252     0312                     	;# 
   253     0313                     	;# 
   254     0314                     	;# 
   255     0315                     	;# 
   256     0315                     	;# 
   257     0316                     	;# 
   258     0317                     	;# 
   259     0318                     	;# 
   260     038C                     	;# 
   261     038D                     	;# 
   262     038E                     	;# 
   263     0391                     	;# 
   264     0392                     	;# 
   265     0393                     	;# 
   266     0394                     	;# 
   267     0395                     	;# 
   268     0396                     	;# 
   269     0397                     	;# 
   270     0398                     	;# 
   271     0399                     	;# 
   272     039A                     	;# 
   273     039C                     	;# 
   274     039D                     	;# 
   275     039E                     	;# 
   276     039F                     	;# 
   277     0411                     	;# 
   278     0411                     	;# 
   279     0412                     	;# 
   280     0413                     	;# 
   281     0414                     	;# 
   282     0415                     	;# 
   283     0416                     	;# 
   284     0417                     	;# 
   285     0418                     	;# 
   286     0418                     	;# 
   287     0419                     	;# 
   288     041A                     	;# 
   289     041B                     	;# 
   290     041C                     	;# 
   291     041D                     	;# 
   292     041E                     	;# 
   293     041F                     	;# 
   294     0498                     	;# 
   295     0498                     	;# 
   296     0499                     	;# 
   297     049A                     	;# 
   298     049B                     	;# 
   299     049B                     	;# 
   300     049C                     	;# 
   301     049D                     	;# 
   302     049E                     	;# 
   303     049F                     	;# 
   304     0617                     	;# 
   305     0618                     	;# 
   306     0619                     	;# 
   307     0619                     	;# 
   308     061A                     	;# 
   309     061B                     	;# 
   310     061C                     	;# 
   311     061C                     	;# 
   312     061F                     	;# 
   313     0691                     	;# 
   314     0692                     	;# 
   315     0693                     	;# 
   316     0694                     	;# 
   317     0695                     	;# 
   318     0696                     	;# 
   319     0697                     	;# 
   320     0698                     	;# 
   321     0699                     	;# 
   322     0711                     	;# 
   323     0712                     	;# 
   324     0713                     	;# 
   325     0714                     	;# 
   326     0715                     	;# 
   327     0716                     	;# 
   328     0717                     	;# 
   329     0718                     	;# 
   330     0719                     	;# 
   331     0891                     	;# 
   332     0891                     	;# 
   333     0891                     	;# 
   334     0891                     	;# 
   335     0891                     	;# 
   336     0891                     	;# 
   337     0892                     	;# 
   338     0892                     	;# 
   339     0892                     	;# 
   340     0893                     	;# 
   341     0893                     	;# 
   342     0893                     	;# 
   343     0893                     	;# 
   344     0893                     	;# 
   345     0893                     	;# 
   346     0894                     	;# 
   347     0894                     	;# 
   348     0894                     	;# 
   349     0895                     	;# 
   350     0895                     	;# 
   351     0895                     	;# 
   352     0896                     	;# 
   353     0896                     	;# 
   354     0896                     	;# 
   355     089B                     	;# 
   356     0911                     	;# 
   357     0912                     	;# 
   358     0913                     	;# 
   359     0914                     	;# 
   360     0915                     	;# 
   361     0916                     	;# 
   362     0918                     	;# 
   363     0919                     	;# 
   364     091A                     	;# 
   365     091B                     	;# 
   366     091C                     	;# 
   367     091D                     	;# 
   368     091E                     	;# 
   369     091F                     	;# 
   370     0E0F                     	;# 
   371     0E10                     	;# 
   372     0E11                     	;# 
   373     0E12                     	;# 
   374     0E13                     	;# 
   375     0E14                     	;# 
   376     0E15                     	;# 
   377     0E16                     	;# 
   378     0E17                     	;# 
   379     0E18                     	;# 
   380     0E19                     	;# 
   381     0E1A                     	;# 
   382     0E1B                     	;# 
   383     0E1C                     	;# 
   384     0E1D                     	;# 
   385     0E1E                     	;# 
   386     0E1F                     	;# 
   387     0E20                     	;# 
   388     0E21                     	;# 
   389     0E22                     	;# 
   390     0E24                     	;# 
   391     0E25                     	;# 
   392     0E28                     	;# 
   393     0E29                     	;# 
   394     0E2A                     	;# 
   395     0E2B                     	;# 
   396     0E2C                     	;# 
   397     0E2D                     	;# 
   398     0E2E                     	;# 
   399     0E2F                     	;# 
   400     0E90                     	;# 
   401     0E91                     	;# 
   402     0E92                     	;# 
   403     0E94                     	;# 
   404     0E95                     	;# 
   405     0E9C                     	;# 
   406     0E9D                     	;# 
   407     0E9E                     	;# 
   408     0E9F                     	;# 
   409     0EA0                     	;# 
   410     0EA1                     	;# 
   411     0EA2                     	;# 
   412     0EA3                     	;# 
   413     0EA4                     	;# 
   414     0EA5                     	;# 
   415     0EA6                     	;# 
   416     0EA7                     	;# 
   417     0F0F                     	;# 
   418     0F10                     	;# 
   419     0F11                     	;# 
   420     0F12                     	;# 
   421     0F13                     	;# 
   422     0F14                     	;# 
   423     0F15                     	;# 
   424     0F16                     	;# 
   425     0F17                     	;# 
   426     0F18                     	;# 
   427     0F19                     	;# 
   428     0F1A                     	;# 
   429     0F1B                     	;# 
   430     0F1C                     	;# 
   431     0F1D                     	;# 
   432     0F1E                     	;# 
   433     0F1F                     	;# 
   434     0F20                     	;# 
   435     0F21                     	;# 
   436     0F22                     	;# 
   437     0F23                     	;# 
   438     0F24                     	;# 
   439     0F25                     	;# 
   440     0F26                     	;# 
   441     0F27                     	;# 
   442     0F28                     	;# 
   443     0F29                     	;# 
   444     0F2A                     	;# 
   445     0F2B                     	;# 
   446     0F2C                     	;# 
   447     0F2D                     	;# 
   448     0F2E                     	;# 
   449     0F2F                     	;# 
   450     0F30                     	;# 
   451     0F31                     	;# 
   452     0F32                     	;# 
   453     0F33                     	;# 
   454     0F34                     	;# 
   455     0F35                     	;# 
   456     0F36                     	;# 
   457     0F37                     	;# 
   458     0FE4                     	;# 
   459     0FE5                     	;# 
   460     0FE6                     	;# 
   461     0FE7                     	;# 
   462     0FE8                     	;# 
   463     0FE9                     	;# 
   464     0FEA                     	;# 
   465     0FEB                     	;# 
   466     0FED                     	;# 
   467     0FEE                     	;# 
   468     0FEF                     	;# 
   469     0000                     	;# 
   470     0001                     	;# 
   471     0002                     	;# 
   472     0003                     	;# 
   473     0004                     	;# 
   474     0005                     	;# 
   475     0006                     	;# 
   476     0007                     	;# 
   477     0008                     	;# 
   478     0009                     	;# 
   479     000A                     	;# 
   480     000B                     	;# 
   481     000C                     	;# 
   482     000D                     	;# 
   483     000E                     	;# 
   484     0010                     	;# 
   485     0011                     	;# 
   486     0012                     	;# 
   487     0013                     	;# 
   488     0014                     	;# 
   489     0015                     	;# 
   490     0015                     	;# 
   491     0016                     	;# 
   492     0016                     	;# 
   493     0017                     	;# 
   494     0018                     	;# 
   495     0019                     	;# 
   496     0019                     	;# 
   497     001A                     	;# 
   498     001B                     	;# 
   499     001C                     	;# 
   500     001D                     	;# 
   501     001E                     	;# 
   502     001F                     	;# 
   503     008C                     	;# 
   504     008D                     	;# 
   505     008E                     	;# 
   506     0090                     	;# 
   507     0091                     	;# 
   508     0092                     	;# 
   509     0093                     	;# 
   510     0094                     	;# 
   511     0097                     	;# 
   512     009B                     	;# 
   513     009B                     	;# 
   514     009C                     	;# 
   515     009D                     	;# 
   516     009E                     	;# 
   517     009F                     	;# 
   518     010C                     	;# 
   519     010D                     	;# 
   520     010E                     	;# 
   521     0111                     	;# 
   522     0112                     	;# 
   523     0113                     	;# 
   524     0114                     	;# 
   525     0115                     	;# 
   526     0116                     	;# 
   527     0117                     	;# 
   528     0118                     	;# 
   529     0119                     	;# 
   530     018C                     	;# 
   531     018D                     	;# 
   532     018E                     	;# 
   533     0197                     	;# 
   534     0199                     	;# 
   535     0199                     	;# 
   536     0199                     	;# 
   537     019A                     	;# 
   538     019A                     	;# 
   539     019A                     	;# 
   540     019B                     	;# 
   541     019B                     	;# 
   542     019B                     	;# 
   543     019B                     	;# 
   544     019B                     	;# 
   545     019C                     	;# 
   546     019C                     	;# 
   547     019C                     	;# 
   548     019D                     	;# 
   549     019D                     	;# 
   550     019D                     	;# 
   551     019E                     	;# 
   552     019E                     	;# 
   553     019E                     	;# 
   554     019F                     	;# 
   555     019F                     	;# 
   556     019F                     	;# 
   557     019F                     	;# 
   558     019F                     	;# 
   559     020C                     	;# 
   560     020D                     	;# 
   561     020E                     	;# 
   562     0211                     	;# 
   563     0211                     	;# 
   564     0212                     	;# 
   565     0212                     	;# 
   566     0213                     	;# 
   567     0213                     	;# 
   568     0214                     	;# 
   569     0214                     	;# 
   570     0215                     	;# 
   571     0215                     	;# 
   572     0215                     	;# 
   573     0215                     	;# 
   574     0216                     	;# 
   575     0216                     	;# 
   576     0217                     	;# 
   577     0217                     	;# 
   578     0219                     	;# 
   579     021A                     	;# 
   580     021B                     	;# 
   581     021C                     	;# 
   582     021D                     	;# 
   583     021D                     	;# 
   584     021E                     	;# 
   585     021F                     	;# 
   586     028C                     	;# 
   587     028D                     	;# 
   588     028E                     	;# 
   589     0291                     	;# 
   590     0291                     	;# 
   591     0292                     	;# 
   592     0293                     	;# 
   593     0294                     	;# 
   594     0295                     	;# 
   595     0295                     	;# 
   596     0296                     	;# 
   597     0297                     	;# 
   598     0298                     	;# 
   599     029F                     	;# 
   600     030C                     	;# 
   601     030D                     	;# 
   602     030E                     	;# 
   603     0311                     	;# 
   604     0311                     	;# 
   605     0312                     	;# 
   606     0313                     	;# 
   607     0314                     	;# 
   608     0315                     	;# 
   609     0315                     	;# 
   610     0316                     	;# 
   611     0317                     	;# 
   612     0318                     	;# 
   613     038C                     	;# 
   614     038D                     	;# 
   615     038E                     	;# 
   616     0391                     	;# 
   617     0392                     	;# 
   618     0393                     	;# 
   619     0394                     	;# 
   620     0395                     	;# 
   621     0396                     	;# 
   622     0397                     	;# 
   623     0398                     	;# 
   624     0399                     	;# 
   625     039A                     	;# 
   626     039C                     	;# 
   627     039D                     	;# 
   628     039E                     	;# 
   629     039F                     	;# 
   630     0411                     	;# 
   631     0411                     	;# 
   632     0412                     	;# 
   633     0413                     	;# 
   634     0414                     	;# 
   635     0415                     	;# 
   636     0416                     	;# 
   637     0417                     	;# 
   638     0418                     	;# 
   639     0418                     	;# 
   640     0419                     	;# 
   641     041A                     	;# 
   642     041B                     	;# 
   643     041C                     	;# 
   644     041D                     	;# 
   645     041E                     	;# 
   646     041F                     	;# 
   647     0498                     	;# 
   648     0498                     	;# 
   649     0499                     	;# 
   650     049A                     	;# 
   651     049B                     	;# 
   652     049B                     	;# 
   653     049C                     	;# 
   654     049D                     	;# 
   655     049E                     	;# 
   656     049F                     	;# 
   657     0617                     	;# 
   658     0618                     	;# 
   659     0619                     	;# 
   660     0619                     	;# 
   661     061A                     	;# 
   662     061B                     	;# 
   663     061C                     	;# 
   664     061C                     	;# 
   665     061F                     	;# 
   666     0691                     	;# 
   667     0692                     	;# 
   668     0693                     	;# 
   669     0694                     	;# 
   670     0695                     	;# 
   671     0696                     	;# 
   672     0697                     	;# 
   673     0698                     	;# 
   674     0699                     	;# 
   675     0711                     	;# 
   676     0712                     	;# 
   677     0713                     	;# 
   678     0714                     	;# 
   679     0715                     	;# 
   680     0716                     	;# 
   681     0717                     	;# 
   682     0718                     	;# 
   683     0719                     	;# 
   684     0891                     	;# 
   685     0891                     	;# 
   686     0891                     	;# 
   687     0891                     	;# 
   688     0891                     	;# 
   689     0891                     	;# 
   690     0892                     	;# 
   691     0892                     	;# 
   692     0892                     	;# 
   693     0893                     	;# 
   694     0893                     	;# 
   695     0893                     	;# 
   696     0893                     	;# 
   697     0893                     	;# 
   698     0893                     	;# 
   699     0894                     	;# 
   700     0894                     	;# 
   701     0894                     	;# 
   702     0895                     	;# 
   703     0895                     	;# 
   704     0895                     	;# 
   705     0896                     	;# 
   706     0896                     	;# 
   707     0896                     	;# 
   708     089B                     	;# 
   709     0911                     	;# 
   710     0912                     	;# 
   711     0913                     	;# 
   712     0914                     	;# 
   713     0915                     	;# 
   714     0916                     	;# 
   715     0918                     	;# 
   716     0919                     	;# 
   717     091A                     	;# 
   718     091B                     	;# 
   719     091C                     	;# 
   720     091D                     	;# 
   721     091E                     	;# 
   722     091F                     	;# 
   723     0E0F                     	;# 
   724     0E10                     	;# 
   725     0E11                     	;# 
   726     0E12                     	;# 
   727     0E13                     	;# 
   728     0E14                     	;# 
   729     0E15                     	;# 
   730     0E16                     	;# 
   731     0E17                     	;# 
   732     0E18                     	;# 
   733     0E19                     	;# 
   734     0E1A                     	;# 
   735     0E1B                     	;# 
   736     0E1C                     	;# 
   737     0E1D                     	;# 
   738     0E1E                     	;# 
   739     0E1F                     	;# 
   740     0E20                     	;# 
   741     0E21                     	;# 
   742     0E22                     	;# 
   743     0E24                     	;# 
   744     0E25                     	;# 
   745     0E28                     	;# 
   746     0E29                     	;# 
   747     0E2A                     	;# 
   748     0E2B                     	;# 
   749     0E2C                     	;# 
   750     0E2D                     	;# 
   751     0E2E                     	;# 
   752     0E2F                     	;# 
   753     0E90                     	;# 
   754     0E91                     	;# 
   755     0E92                     	;# 
   756     0E94                     	;# 
   757     0E95                     	;# 
   758     0E9C                     	;# 
   759     0E9D                     	;# 
   760     0E9E                     	;# 
   761     0E9F                     	;# 
   762     0EA0                     	;# 
   763     0EA1                     	;# 
   764     0EA2                     	;# 
   765     0EA3                     	;# 
   766     0EA4                     	;# 
   767     0EA5                     	;# 
   768     0EA6                     	;# 
   769     0EA7                     	;# 
   770     0F0F                     	;# 
   771     0F10                     	;# 
   772     0F11                     	;# 
   773     0F12                     	;# 
   774     0F13                     	;# 
   775     0F14                     	;# 
   776     0F15                     	;# 
   777     0F16                     	;# 
   778     0F17                     	;# 
   779     0F18                     	;# 
   780     0F19                     	;# 
   781     0F1A                     	;# 
   782     0F1B                     	;# 
   783     0F1C                     	;# 
   784     0F1D                     	;# 
   785     0F1E                     	;# 
   786     0F1F                     	;# 
   787     0F20                     	;# 
   788     0F21                     	;# 
   789     0F22                     	;# 
   790     0F23                     	;# 
   791     0F24                     	;# 
   792     0F25                     	;# 
   793     0F26                     	;# 
   794     0F27                     	;# 
   795     0F28                     	;# 
   796     0F29                     	;# 
   797     0F2A                     	;# 
   798     0F2B                     	;# 
   799     0F2C                     	;# 
   800     0F2D                     	;# 
   801     0F2E                     	;# 
   802     0F2F                     	;# 
   803     0F30                     	;# 
   804     0F31                     	;# 
   805     0F32                     	;# 
   806     0F33                     	;# 
   807     0F34                     	;# 
   808     0F35                     	;# 
   809     0F36                     	;# 
   810     0F37                     	;# 
   811     0FE4                     	;# 
   812     0FE5                     	;# 
   813     0FE6                     	;# 
   814     0FE7                     	;# 
   815     0FE8                     	;# 
   816     0FE9                     	;# 
   817     0FEA                     	;# 
   818     0FEB                     	;# 
   819     0FED                     	;# 
   820     0FEE                     	;# 
   821     0FEF                     	;# 
   822     0000                     	;# 
   823     0001                     	;# 
   824     0002                     	;# 
   825     0003                     	;# 
   826     0004                     	;# 
   827     0005                     	;# 
   828     0006                     	;# 
   829     0007                     	;# 
   830     0008                     	;# 
   831     0009                     	;# 
   832     000A                     	;# 
   833     000B                     	;# 
   834     000C                     	;# 
   835     000D                     	;# 
   836     000E                     	;# 
   837     0010                     	;# 
   838     0011                     	;# 
   839     0012                     	;# 
   840     0013                     	;# 
   841     0014                     	;# 
   842     0015                     	;# 
   843     0015                     	;# 
   844     0016                     	;# 
   845     0016                     	;# 
   846     0017                     	;# 
   847     0018                     	;# 
   848     0019                     	;# 
   849     0019                     	;# 
   850     001A                     	;# 
   851     001B                     	;# 
   852     001C                     	;# 
   853     001D                     	;# 
   854     001E                     	;# 
   855     001F                     	;# 
   856     008C                     	;# 
   857     008D                     	;# 
   858     008E                     	;# 
   859     0090                     	;# 
   860     0091                     	;# 
   861     0092                     	;# 
   862     0093                     	;# 
   863     0094                     	;# 
   864     0097                     	;# 
   865     009B                     	;# 
   866     009B                     	;# 
   867     009C                     	;# 
   868     009D                     	;# 
   869     009E                     	;# 
   870     009F                     	;# 
   871     010C                     	;# 
   872     010D                     	;# 
   873     010E                     	;# 
   874     0111                     	;# 
   875     0112                     	;# 
   876     0113                     	;# 
   877     0114                     	;# 
   878     0115                     	;# 
   879     0116                     	;# 
   880     0117                     	;# 
   881     0118                     	;# 
   882     0119                     	;# 
   883     018C                     	;# 
   884     018D                     	;# 
   885     018E                     	;# 
   886     0197                     	;# 
   887     0199                     	;# 
   888     0199                     	;# 
   889     0199                     	;# 
   890     019A                     	;# 
   891     019A                     	;# 
   892     019A                     	;# 
   893     019B                     	;# 
   894     019B                     	;# 
   895     019B                     	;# 
   896     019B                     	;# 
   897     019B                     	;# 
   898     019C                     	;# 
   899     019C                     	;# 
   900     019C                     	;# 
   901     019D                     	;# 
   902     019D                     	;# 
   903     019D                     	;# 
   904     019E                     	;# 
   905     019E                     	;# 
   906     019E                     	;# 
   907     019F                     	;# 
   908     019F                     	;# 
   909     019F                     	;# 
   910     019F                     	;# 
   911     019F                     	;# 
   912     020C                     	;# 
   913     020D                     	;# 
   914     020E                     	;# 
   915     0211                     	;# 
   916     0211                     	;# 
   917     0212                     	;# 
   918     0212                     	;# 
   919     0213                     	;# 
   920     0213                     	;# 
   921     0214                     	;# 
   922     0214                     	;# 
   923     0215                     	;# 
   924     0215                     	;# 
   925     0215                     	;# 
   926     0215                     	;# 
   927     0216                     	;# 
   928     0216                     	;# 
   929     0217                     	;# 
   930     0217                     	;# 
   931     0219                     	;# 
   932     021A                     	;# 
   933     021B                     	;# 
   934     021C                     	;# 
   935     021D                     	;# 
   936     021D                     	;# 
   937     021E                     	;# 
   938     021F                     	;# 
   939     028C                     	;# 
   940     028D                     	;# 
   941     028E                     	;# 
   942     0291                     	;# 
   943     0291                     	;# 
   944     0292                     	;# 
   945     0293                     	;# 
   946     0294                     	;# 
   947     0295                     	;# 
   948     0295                     	;# 
   949     0296                     	;# 
   950     0297                     	;# 
   951     0298                     	;# 
   952     029F                     	;# 
   953     030C                     	;# 
   954     030D                     	;# 
   955     030E                     	;# 
   956     0311                     	;# 
   957     0311                     	;# 
   958     0312                     	;# 
   959     0313                     	;# 
   960     0314                     	;# 
   961     0315                     	;# 
   962     0315                     	;# 
   963     0316                     	;# 
   964     0317                     	;# 
   965     0318                     	;# 
   966     038C                     	;# 
   967     038D                     	;# 
   968     038E                     	;# 
   969     0391                     	;# 
   970     0392                     	;# 
   971     0393                     	;# 
   972     0394                     	;# 
   973     0395                     	;# 
   974     0396                     	;# 
   975     0397                     	;# 
   976     0398                     	;# 
   977     0399                     	;# 
   978     039A                     	;# 
   979     039C                     	;# 
   980     039D                     	;# 
   981     039E                     	;# 
   982     039F                     	;# 
   983     0411                     	;# 
   984     0411                     	;# 
   985     0412                     	;# 
   986     0413                     	;# 
   987     0414                     	;# 
   988     0415                     	;# 
   989     0416                     	;# 
   990     0417                     	;# 
   991     0418                     	;# 
   992     0418                     	;# 
   993     0419                     	;# 
   994     041A                     	;# 
   995     041B                     	;# 
   996     041C                     	;# 
   997     041D                     	;# 
   998     041E                     	;# 
   999     041F                     	;# 
  1000     0498                     	;# 
  1001     0498                     	;# 
  1002     0499                     	;# 
  1003     049A                     	;# 
  1004     049B                     	;# 
  1005     049B                     	;# 
  1006     049C                     	;# 
  1007     049D                     	;# 
  1008     049E                     	;# 
  1009     049F                     	;# 
  1010     0617                     	;# 
  1011     0618                     	;# 
  1012     0619                     	;# 
  1013     0619                     	;# 
  1014     061A                     	;# 
  1015     061B                     	;# 
  1016     061C                     	;# 
  1017     061C                     	;# 
  1018     061F                     	;# 
  1019     0691                     	;# 
  1020     0692                     	;# 
  1021     0693                     	;# 
  1022     0694                     	;# 
  1023     0695                     	;# 
  1024     0696                     	;# 
  1025     0697                     	;# 
  1026     0698                     	;# 
  1027     0699                     	;# 
  1028     0711                     	;# 
  1029     0712                     	;# 
  1030     0713                     	;# 
  1031     0714                     	;# 
  1032     0715                     	;# 
  1033     0716                     	;# 
  1034     0717                     	;# 
  1035     0718                     	;# 
  1036     0719                     	;# 
  1037     0891                     	;# 
  1038     0891                     	;# 
  1039     0891                     	;# 
  1040     0891                     	;# 
  1041     0891                     	;# 
  1042     0891                     	;# 
  1043     0892                     	;# 
  1044     0892                     	;# 
  1045     0892                     	;# 
  1046     0893                     	;# 
  1047     0893                     	;# 
  1048     0893                     	;# 
  1049     0893                     	;# 
  1050     0893                     	;# 
  1051     0893                     	;# 
  1052     0894                     	;# 
  1053     0894                     	;# 
  1054     0894                     	;# 
  1055     0895                     	;# 
  1056     0895                     	;# 
  1057     0895                     	;# 
  1058     0896                     	;# 
  1059     0896                     	;# 
  1060     0896                     	;# 
  1061     089B                     	;# 
  1062     0911                     	;# 
  1063     0912                     	;# 
  1064     0913                     	;# 
  1065     0914                     	;# 
  1066     0915                     	;# 
  1067     0916                     	;# 
  1068     0918                     	;# 
  1069     0919                     	;# 
  1070     091A                     	;# 
  1071     091B                     	;# 
  1072     091C                     	;# 
  1073     091D                     	;# 
  1074     091E                     	;# 
  1075     091F                     	;# 
  1076     0E0F                     	;# 
  1077     0E10                     	;# 
  1078     0E11                     	;# 
  1079     0E12                     	;# 
  1080     0E13                     	;# 
  1081     0E14                     	;# 
  1082     0E15                     	;# 
  1083     0E16                     	;# 
  1084     0E17                     	;# 
  1085     0E18                     	;# 
  1086     0E19                     	;# 
  1087     0E1A                     	;# 
  1088     0E1B                     	;# 
  1089     0E1C                     	;# 
  1090     0E1D                     	;# 
  1091     0E1E                     	;# 
  1092     0E1F                     	;# 
  1093     0E20                     	;# 
  1094     0E21                     	;# 
  1095     0E22                     	;# 
  1096     0E24                     	;# 
  1097     0E25                     	;# 
  1098     0E28                     	;# 
  1099     0E29                     	;# 
  1100     0E2A                     	;# 
  1101     0E2B                     	;# 
  1102     0E2C                     	;# 
  1103     0E2D                     	;# 
  1104     0E2E                     	;# 
  1105     0E2F                     	;# 
  1106     0E90                     	;# 
  1107     0E91                     	;# 
  1108     0E92                     	;# 
  1109     0E94                     	;# 
  1110     0E95                     	;# 
  1111     0E9C                     	;# 
  1112     0E9D                     	;# 
  1113     0E9E                     	;# 
  1114     0E9F                     	;# 
  1115     0EA0                     	;# 
  1116     0EA1                     	;# 
  1117     0EA2                     	;# 
  1118     0EA3                     	;# 
  1119     0EA4                     	;# 
  1120     0EA5                     	;# 
  1121     0EA6                     	;# 
  1122     0EA7                     	;# 
  1123     0F0F                     	;# 
  1124     0F10                     	;# 
  1125     0F11                     	;# 
  1126     0F12                     	;# 
  1127     0F13                     	;# 
  1128     0F14                     	;# 
  1129     0F15                     	;# 
  1130     0F16                     	;# 
  1131     0F17                     	;# 
  1132     0F18                     	;# 
  1133     0F19                     	;# 
  1134     0F1A                     	;# 
  1135     0F1B                     	;# 
  1136     0F1C                     	;# 
  1137     0F1D                     	;# 
  1138     0F1E                     	;# 
  1139     0F1F                     	;# 
  1140     0F20                     	;# 
  1141     0F21                     	;# 
  1142     0F22                     	;# 
  1143     0F23                     	;# 
  1144     0F24                     	;# 
  1145     0F25                     	;# 
  1146     0F26                     	;# 
  1147     0F27                     	;# 
  1148     0F28                     	;# 
  1149     0F29                     	;# 
  1150     0F2A                     	;# 
  1151     0F2B                     	;# 
  1152     0F2C                     	;# 
  1153     0F2D                     	;# 
  1154     0F2E                     	;# 
  1155     0F2F                     	;# 
  1156     0F30                     	;# 
  1157     0F31                     	;# 
  1158     0F32                     	;# 
  1159     0F33                     	;# 
  1160     0F34                     	;# 
  1161     0F35                     	;# 
  1162     0F36                     	;# 
  1163     0F37                     	;# 
  1164     0FE4                     	;# 
  1165     0FE5                     	;# 
  1166     0FE6                     	;# 
  1167     0FE7                     	;# 
  1168     0FE8                     	;# 
  1169     0FE9                     	;# 
  1170     0FEA                     	;# 
  1171     0FEB                     	;# 
  1172     0FED                     	;# 
  1173     0FEE                     	;# 
  1174     0FEF                     	;# 
  1175     0000                     	;# 
  1176     0001                     	;# 
  1177     0002                     	;# 
  1178     0003                     	;# 
  1179     0004                     	;# 
  1180     0005                     	;# 
  1181     0006                     	;# 
  1182     0007                     	;# 
  1183     0008                     	;# 
  1184     0009                     	;# 
  1185     000A                     	;# 
  1186     000B                     	;# 
  1187     000C                     	;# 
  1188     000D                     	;# 
  1189     000E                     	;# 
  1190     0010                     	;# 
  1191     0011                     	;# 
  1192     0012                     	;# 
  1193     0013                     	;# 
  1194     0014                     	;# 
  1195     0015                     	;# 
  1196     0015                     	;# 
  1197     0016                     	;# 
  1198     0016                     	;# 
  1199     0017                     	;# 
  1200     0018                     	;# 
  1201     0019                     	;# 
  1202     0019                     	;# 
  1203     001A                     	;# 
  1204     001B                     	;# 
  1205     001C                     	;# 
  1206     001D                     	;# 
  1207     001E                     	;# 
  1208     001F                     	;# 
  1209     008C                     	;# 
  1210     008D                     	;# 
  1211     008E                     	;# 
  1212     0090                     	;# 
  1213     0091                     	;# 
  1214     0092                     	;# 
  1215     0093                     	;# 
  1216     0094                     	;# 
  1217     0097                     	;# 
  1218     009B                     	;# 
  1219     009B                     	;# 
  1220     009C                     	;# 
  1221     009D                     	;# 
  1222     009E                     	;# 
  1223     009F                     	;# 
  1224     010C                     	;# 
  1225     010D                     	;# 
  1226     010E                     	;# 
  1227     0111                     	;# 
  1228     0112                     	;# 
  1229     0113                     	;# 
  1230     0114                     	;# 
  1231     0115                     	;# 
  1232     0116                     	;# 
  1233     0117                     	;# 
  1234     0118                     	;# 
  1235     0119                     	;# 
  1236     018C                     	;# 
  1237     018D                     	;# 
  1238     018E                     	;# 
  1239     0197                     	;# 
  1240     0199                     	;# 
  1241     0199                     	;# 
  1242     0199                     	;# 
  1243     019A                     	;# 
  1244     019A                     	;# 
  1245     019A                     	;# 
  1246     019B                     	;# 
  1247     019B                     	;# 
  1248     019B                     	;# 
  1249     019B                     	;# 
  1250     019B                     	;# 
  1251     019C                     	;# 
  1252     019C                     	;# 
  1253     019C                     	;# 
  1254     019D                     	;# 
  1255     019D                     	;# 
  1256     019D                     	;# 
  1257     019E                     	;# 
  1258     019E                     	;# 
  1259     019E                     	;# 
  1260     019F                     	;# 
  1261     019F                     	;# 
  1262     019F                     	;# 
  1263     019F                     	;# 
  1264     019F                     	;# 
  1265     020C                     	;# 
  1266     020D                     	;# 
  1267     020E                     	;# 
  1268     0211                     	;# 
  1269     0211                     	;# 
  1270     0212                     	;# 
  1271     0212                     	;# 
  1272     0213                     	;# 
  1273     0213                     	;# 
  1274     0214                     	;# 
  1275     0214                     	;# 
  1276     0215                     	;# 
  1277     0215                     	;# 
  1278     0215                     	;# 
  1279     0215                     	;# 
  1280     0216                     	;# 
  1281     0216                     	;# 
  1282     0217                     	;# 
  1283     0217                     	;# 
  1284     0219                     	;# 
  1285     021A                     	;# 
  1286     021B                     	;# 
  1287     021C                     	;# 
  1288     021D                     	;# 
  1289     021D                     	;# 
  1290     021E                     	;# 
  1291     021F                     	;# 
  1292     028C                     	;# 
  1293     028D                     	;# 
  1294     028E                     	;# 
  1295     0291                     	;# 
  1296     0291                     	;# 
  1297     0292                     	;# 
  1298     0293                     	;# 
  1299     0294                     	;# 
  1300     0295                     	;# 
  1301     0295                     	;# 
  1302     0296                     	;# 
  1303     0297                     	;# 
  1304     0298                     	;# 
  1305     029F                     	;# 
  1306     030C                     	;# 
  1307     030D                     	;# 
  1308     030E                     	;# 
  1309     0311                     	;# 
  1310     0311                     	;# 
  1311     0312                     	;# 
  1312     0313                     	;# 
  1313     0314                     	;# 
  1314     0315                     	;# 
  1315     0315                     	;# 
  1316     0316                     	;# 
  1317     0317                     	;# 
  1318     0318                     	;# 
  1319     038C                     	;# 
  1320     038D                     	;# 
  1321     038E                     	;# 
  1322     0391                     	;# 
  1323     0392                     	;# 
  1324     0393                     	;# 
  1325     0394                     	;# 
  1326     0395                     	;# 
  1327     0396                     	;# 
  1328     0397                     	;# 
  1329     0398                     	;# 
  1330     0399                     	;# 
  1331     039A                     	;# 
  1332     039C                     	;# 
  1333     039D                     	;# 
  1334     039E                     	;# 
  1335     039F                     	;# 
  1336     0411                     	;# 
  1337     0411                     	;# 
  1338     0412                     	;# 
  1339     0413                     	;# 
  1340     0414                     	;# 
  1341     0415                     	;# 
  1342     0416                     	;# 
  1343     0417                     	;# 
  1344     0418                     	;# 
  1345     0418                     	;# 
  1346     0419                     	;# 
  1347     041A                     	;# 
  1348     041B                     	;# 
  1349     041C                     	;# 
  1350     041D                     	;# 
  1351     041E                     	;# 
  1352     041F                     	;# 
  1353     0498                     	;# 
  1354     0498                     	;# 
  1355     0499                     	;# 
  1356     049A                     	;# 
  1357     049B                     	;# 
  1358     049B                     	;# 
  1359     049C                     	;# 
  1360     049D                     	;# 
  1361     049E                     	;# 
  1362     049F                     	;# 
  1363     0617                     	;# 
  1364     0618                     	;# 
  1365     0619                     	;# 
  1366     0619                     	;# 
  1367     061A                     	;# 
  1368     061B                     	;# 
  1369     061C                     	;# 
  1370     061C                     	;# 
  1371     061F                     	;# 
  1372     0691                     	;# 
  1373     0692                     	;# 
  1374     0693                     	;# 
  1375     0694                     	;# 
  1376     0695                     	;# 
  1377     0696                     	;# 
  1378     0697                     	;# 
  1379     0698                     	;# 
  1380     0699                     	;# 
  1381     0711                     	;# 
  1382     0712                     	;# 
  1383     0713                     	;# 
  1384     0714                     	;# 
  1385     0715                     	;# 
  1386     0716                     	;# 
  1387     0717                     	;# 
  1388     0718                     	;# 
  1389     0719                     	;# 
  1390     0891                     	;# 
  1391     0891                     	;# 
  1392     0891                     	;# 
  1393     0891                     	;# 
  1394     0891                     	;# 
  1395     0891                     	;# 
  1396     0892                     	;# 
  1397     0892                     	;# 
  1398     0892                     	;# 
  1399     0893                     	;# 
  1400     0893                     	;# 
  1401     0893                     	;# 
  1402     0893                     	;# 
  1403     0893                     	;# 
  1404     0893                     	;# 
  1405     0894                     	;# 
  1406     0894                     	;# 
  1407     0894                     	;# 
  1408     0895                     	;# 
  1409     0895                     	;# 
  1410     0895                     	;# 
  1411     0896                     	;# 
  1412     0896                     	;# 
  1413     0896                     	;# 
  1414     089B                     	;# 
  1415     0911                     	;# 
  1416     0912                     	;# 
  1417     0913                     	;# 
  1418     0914                     	;# 
  1419     0915                     	;# 
  1420     0916                     	;# 
  1421     0918                     	;# 
  1422     0919                     	;# 
  1423     091A                     	;# 
  1424     091B                     	;# 
  1425     091C                     	;# 
  1426     091D                     	;# 
  1427     091E                     	;# 
  1428     091F                     	;# 
  1429     0E0F                     	;# 
  1430     0E10                     	;# 
  1431     0E11                     	;# 
  1432     0E12                     	;# 
  1433     0E13                     	;# 
  1434     0E14                     	;# 
  1435     0E15                     	;# 
  1436     0E16                     	;# 
  1437     0E17                     	;# 
  1438     0E18                     	;# 
  1439     0E19                     	;# 
  1440     0E1A                     	;# 
  1441     0E1B                     	;# 
  1442     0E1C                     	;# 
  1443     0E1D                     	;# 
  1444     0E1E                     	;# 
  1445     0E1F                     	;# 
  1446     0E20                     	;# 
  1447     0E21                     	;# 
  1448     0E22                     	;# 
  1449     0E24                     	;# 
  1450     0E25                     	;# 
  1451     0E28                     	;# 
  1452     0E29                     	;# 
  1453     0E2A                     	;# 
  1454     0E2B                     	;# 
  1455     0E2C                     	;# 
  1456     0E2D                     	;# 
  1457     0E2E                     	;# 
  1458     0E2F                     	;# 
  1459     0E90                     	;# 
  1460     0E91                     	;# 
  1461     0E92                     	;# 
  1462     0E94                     	;# 
  1463     0E95                     	;# 
  1464     0E9C                     	;# 
  1465     0E9D                     	;# 
  1466     0E9E                     	;# 
  1467     0E9F                     	;# 
  1468     0EA0                     	;# 
  1469     0EA1                     	;# 
  1470     0EA2                     	;# 
  1471     0EA3                     	;# 
  1472     0EA4                     	;# 
  1473     0EA5                     	;# 
  1474     0EA6                     	;# 
  1475     0EA7                     	;# 
  1476     0F0F                     	;# 
  1477     0F10                     	;# 
  1478     0F11                     	;# 
  1479     0F12                     	;# 
  1480     0F13                     	;# 
  1481     0F14                     	;# 
  1482     0F15                     	;# 
  1483     0F16                     	;# 
  1484     0F17                     	;# 
  1485     0F18                     	;# 
  1486     0F19                     	;# 
  1487     0F1A                     	;# 
  1488     0F1B                     	;# 
  1489     0F1C                     	;# 
  1490     0F1D                     	;# 
  1491     0F1E                     	;# 
  1492     0F1F                     	;# 
  1493     0F20                     	;# 
  1494     0F21                     	;# 
  1495     0F22                     	;# 
  1496     0F23                     	;# 
  1497     0F24                     	;# 
  1498     0F25                     	;# 
  1499     0F26                     	;# 
  1500     0F27                     	;# 
  1501     0F28                     	;# 
  1502     0F29                     	;# 
  1503     0F2A                     	;# 
  1504     0F2B                     	;# 
  1505     0F2C                     	;# 
  1506     0F2D                     	;# 
  1507     0F2E                     	;# 
  1508     0F2F                     	;# 
  1509     0F30                     	;# 
  1510     0F31                     	;# 
  1511     0F32                     	;# 
  1512     0F33                     	;# 
  1513     0F34                     	;# 
  1514     0F35                     	;# 
  1515     0F36                     	;# 
  1516     0F37                     	;# 
  1517     0FE4                     	;# 
  1518     0FE5                     	;# 
  1519     0FE6                     	;# 
  1520     0FE7                     	;# 
  1521     0FE8                     	;# 
  1522     0FE9                     	;# 
  1523     0FEA                     	;# 
  1524     0FEB                     	;# 
  1525     0FED                     	;# 
  1526     0FEE                     	;# 
  1527     0FEF                     	;# 
  1528     0000                     	;# 
  1529     0001                     	;# 
  1530     0002                     	;# 
  1531     0003                     	;# 
  1532     0004                     	;# 
  1533     0005                     	;# 
  1534     0006                     	;# 
  1535     0007                     	;# 
  1536     0008                     	;# 
  1537     0009                     	;# 
  1538     000A                     	;# 
  1539     000B                     	;# 
  1540     000C                     	;# 
  1541     000D                     	;# 
  1542     000E                     	;# 
  1543     0010                     	;# 
  1544     0011                     	;# 
  1545     0012                     	;# 
  1546     0013                     	;# 
  1547     0014                     	;# 
  1548     0015                     	;# 
  1549     0015                     	;# 
  1550     0016                     	;# 
  1551     0016                     	;# 
  1552     0017                     	;# 
  1553     0018                     	;# 
  1554     0019                     	;# 
  1555     0019                     	;# 
  1556     001A                     	;# 
  1557     001B                     	;# 
  1558     001C                     	;# 
  1559     001D                     	;# 
  1560     001E                     	;# 
  1561     001F                     	;# 
  1562     008C                     	;# 
  1563     008D                     	;# 
  1564     008E                     	;# 
  1565     0090                     	;# 
  1566     0091                     	;# 
  1567     0092                     	;# 
  1568     0093                     	;# 
  1569     0094                     	;# 
  1570     0097                     	;# 
  1571     009B                     	;# 
  1572     009B                     	;# 
  1573     009C                     	;# 
  1574     009D                     	;# 
  1575     009E                     	;# 
  1576     009F                     	;# 
  1577     010C                     	;# 
  1578     010D                     	;# 
  1579     010E                     	;# 
  1580     0111                     	;# 
  1581     0112                     	;# 
  1582     0113                     	;# 
  1583     0114                     	;# 
  1584     0115                     	;# 
  1585     0116                     	;# 
  1586     0117                     	;# 
  1587     0118                     	;# 
  1588     0119                     	;# 
  1589     018C                     	;# 
  1590     018D                     	;# 
  1591     018E                     	;# 
  1592     0197                     	;# 
  1593     0199                     	;# 
  1594     0199                     	;# 
  1595     0199                     	;# 
  1596     019A                     	;# 
  1597     019A                     	;# 
  1598     019A                     	;# 
  1599     019B                     	;# 
  1600     019B                     	;# 
  1601     019B                     	;# 
  1602     019B                     	;# 
  1603     019B                     	;# 
  1604     019C                     	;# 
  1605     019C                     	;# 
  1606     019C                     	;# 
  1607     019D                     	;# 
  1608     019D                     	;# 
  1609     019D                     	;# 
  1610     019E                     	;# 
  1611     019E                     	;# 
  1612     019E                     	;# 
  1613     019F                     	;# 
  1614     019F                     	;# 
  1615     019F                     	;# 
  1616     019F                     	;# 
  1617     019F                     	;# 
  1618     020C                     	;# 
  1619     020D                     	;# 
  1620     020E                     	;# 
  1621     0211                     	;# 
  1622     0211                     	;# 
  1623     0212                     	;# 
  1624     0212                     	;# 
  1625     0213                     	;# 
  1626     0213                     	;# 
  1627     0214                     	;# 
  1628     0214                     	;# 
  1629     0215                     	;# 
  1630     0215                     	;# 
  1631     0215                     	;# 
  1632     0215                     	;# 
  1633     0216                     	;# 
  1634     0216                     	;# 
  1635     0217                     	;# 
  1636     0217                     	;# 
  1637     0219                     	;# 
  1638     021A                     	;# 
  1639     021B                     	;# 
  1640     021C                     	;# 
  1641     021D                     	;# 
  1642     021D                     	;# 
  1643     021E                     	;# 
  1644     021F                     	;# 
  1645     028C                     	;# 
  1646     028D                     	;# 
  1647     028E                     	;# 
  1648     0291                     	;# 
  1649     0291                     	;# 
  1650     0292                     	;# 
  1651     0293                     	;# 
  1652     0294                     	;# 
  1653     0295                     	;# 
  1654     0295                     	;# 
  1655     0296                     	;# 
  1656     0297                     	;# 
  1657     0298                     	;# 
  1658     029F                     	;# 
  1659     030C                     	;# 
  1660     030D                     	;# 
  1661     030E                     	;# 
  1662     0311                     	;# 
  1663     0311                     	;# 
  1664     0312                     	;# 
  1665     0313                     	;# 
  1666     0314                     	;# 
  1667     0315                     	;# 
  1668     0315                     	;# 
  1669     0316                     	;# 
  1670     0317                     	;# 
  1671     0318                     	;# 
  1672     038C                     	;# 
  1673     038D                     	;# 
  1674     038E                     	;# 
  1675     0391                     	;# 
  1676     0392                     	;# 
  1677     0393                     	;# 
  1678     0394                     	;# 
  1679     0395                     	;# 
  1680     0396                     	;# 
  1681     0397                     	;# 
  1682     0398                     	;# 
  1683     0399                     	;# 
  1684     039A                     	;# 
  1685     039C                     	;# 
  1686     039D                     	;# 
  1687     039E                     	;# 
  1688     039F                     	;# 
  1689     0411                     	;# 
  1690     0411                     	;# 
  1691     0412                     	;# 
  1692     0413                     	;# 
  1693     0414                     	;# 
  1694     0415                     	;# 
  1695     0416                     	;# 
  1696     0417                     	;# 
  1697     0418                     	;# 
  1698     0418                     	;# 
  1699     0419                     	;# 
  1700     041A                     	;# 
  1701     041B                     	;# 
  1702     041C                     	;# 
  1703     041D                     	;# 
  1704     041E                     	;# 
  1705     041F                     	;# 
  1706     0498                     	;# 
  1707     0498                     	;# 
  1708     0499                     	;# 
  1709     049A                     	;# 
  1710     049B                     	;# 
  1711     049B                     	;# 
  1712     049C                     	;# 
  1713     049D                     	;# 
  1714     049E                     	;# 
  1715     049F                     	;# 
  1716     0617                     	;# 
  1717     0618                     	;# 
  1718     0619                     	;# 
  1719     0619                     	;# 
  1720     061A                     	;# 
  1721     061B                     	;# 
  1722     061C                     	;# 
  1723     061C                     	;# 
  1724     061F                     	;# 
  1725     0691                     	;# 
  1726     0692                     	;# 
  1727     0693                     	;# 
  1728     0694                     	;# 
  1729     0695                     	;# 
  1730     0696                     	;# 
  1731     0697                     	;# 
  1732     0698                     	;# 
  1733     0699                     	;# 
  1734     0711                     	;# 
  1735     0712                     	;# 
  1736     0713                     	;# 
  1737     0714                     	;# 
  1738     0715                     	;# 
  1739     0716                     	;# 
  1740     0717                     	;# 
  1741     0718                     	;# 
  1742     0719                     	;# 
  1743     0891                     	;# 
  1744     0891                     	;# 
  1745     0891                     	;# 
  1746     0891                     	;# 
  1747     0891                     	;# 
  1748     0891                     	;# 
  1749     0892                     	;# 
  1750     0892                     	;# 
  1751     0892                     	;# 
  1752     0893                     	;# 
  1753     0893                     	;# 
  1754     0893                     	;# 
  1755     0893                     	;# 
  1756     0893                     	;# 
  1757     0893                     	;# 
  1758     0894                     	;# 
  1759     0894                     	;# 
  1760     0894                     	;# 
  1761     0895                     	;# 
  1762     0895                     	;# 
  1763     0895                     	;# 
  1764     0896                     	;# 
  1765     0896                     	;# 
  1766     0896                     	;# 
  1767     089B                     	;# 
  1768     0911                     	;# 
  1769     0912                     	;# 
  1770     0913                     	;# 
  1771     0914                     	;# 
  1772     0915                     	;# 
  1773     0916                     	;# 
  1774     0918                     	;# 
  1775     0919                     	;# 
  1776     091A                     	;# 
  1777     091B                     	;# 
  1778     091C                     	;# 
  1779     091D                     	;# 
  1780     091E                     	;# 
  1781     091F                     	;# 
  1782     0E0F                     	;# 
  1783     0E10                     	;# 
  1784     0E11                     	;# 
  1785     0E12                     	;# 
  1786     0E13                     	;# 
  1787     0E14                     	;# 
  1788     0E15                     	;# 
  1789     0E16                     	;# 
  1790     0E17                     	;# 
  1791     0E18                     	;# 
  1792     0E19                     	;# 
  1793     0E1A                     	;# 
  1794     0E1B                     	;# 
  1795     0E1C                     	;# 
  1796     0E1D                     	;# 
  1797     0E1E                     	;# 
  1798     0E1F                     	;# 
  1799     0E20                     	;# 
  1800     0E21                     	;# 
  1801     0E22                     	;# 
  1802     0E24                     	;# 
  1803     0E25                     	;# 
  1804     0E28                     	;# 
  1805     0E29                     	;# 
  1806     0E2A                     	;# 
  1807     0E2B                     	;# 
  1808     0E2C                     	;# 
  1809     0E2D                     	;# 
  1810     0E2E                     	;# 
  1811     0E2F                     	;# 
  1812     0E90                     	;# 
  1813     0E91                     	;# 
  1814     0E92                     	;# 
  1815     0E94                     	;# 
  1816     0E95                     	;# 
  1817     0E9C                     	;# 
  1818     0E9D                     	;# 
  1819     0E9E                     	;# 
  1820     0E9F                     	;# 
  1821     0EA0                     	;# 
  1822     0EA1                     	;# 
  1823     0EA2                     	;# 
  1824     0EA3                     	;# 
  1825     0EA4                     	;# 
  1826     0EA5                     	;# 
  1827     0EA6                     	;# 
  1828     0EA7                     	;# 
  1829     0F0F                     	;# 
  1830     0F10                     	;# 
  1831     0F11                     	;# 
  1832     0F12                     	;# 
  1833     0F13                     	;# 
  1834     0F14                     	;# 
  1835     0F15                     	;# 
  1836     0F16                     	;# 
  1837     0F17                     	;# 
  1838     0F18                     	;# 
  1839     0F19                     	;# 
  1840     0F1A                     	;# 
  1841     0F1B                     	;# 
  1842     0F1C                     	;# 
  1843     0F1D                     	;# 
  1844     0F1E                     	;# 
  1845     0F1F                     	;# 
  1846     0F20                     	;# 
  1847     0F21                     	;# 
  1848     0F22                     	;# 
  1849     0F23                     	;# 
  1850     0F24                     	;# 
  1851     0F25                     	;# 
  1852     0F26                     	;# 
  1853     0F27                     	;# 
  1854     0F28                     	;# 
  1855     0F29                     	;# 
  1856     0F2A                     	;# 
  1857     0F2B                     	;# 
  1858     0F2C                     	;# 
  1859     0F2D                     	;# 
  1860     0F2E                     	;# 
  1861     0F2F                     	;# 
  1862     0F30                     	;# 
  1863     0F31                     	;# 
  1864     0F32                     	;# 
  1865     0F33                     	;# 
  1866     0F34                     	;# 
  1867     0F35                     	;# 
  1868     0F36                     	;# 
  1869     0F37                     	;# 
  1870     0FE4                     	;# 
  1871     0FE5                     	;# 
  1872     0FE6                     	;# 
  1873     0FE7                     	;# 
  1874     0FE8                     	;# 
  1875     0FE9                     	;# 
  1876     0FEA                     	;# 
  1877     0FEB                     	;# 
  1878     0FED                     	;# 
  1879     0FEE                     	;# 
  1880     0FEF                     	;# 
  1881     0000                     	;# 
  1882     0001                     	;# 
  1883     0002                     	;# 
  1884     0003                     	;# 
  1885     0004                     	;# 
  1886     0005                     	;# 
  1887     0006                     	;# 
  1888     0007                     	;# 
  1889     0008                     	;# 
  1890     0009                     	;# 
  1891     000A                     	;# 
  1892     000B                     	;# 
  1893     000C                     	;# 
  1894     000D                     	;# 
  1895     000E                     	;# 
  1896     0010                     	;# 
  1897     0011                     	;# 
  1898     0012                     	;# 
  1899     0013                     	;# 
  1900     0014                     	;# 
  1901     0015                     	;# 
  1902     0015                     	;# 
  1903     0016                     	;# 
  1904     0016                     	;# 
  1905     0017                     	;# 
  1906     0018                     	;# 
  1907     0019                     	;# 
  1908     0019                     	;# 
  1909     001A                     	;# 
  1910     001B                     	;# 
  1911     001C                     	;# 
  1912     001D                     	;# 
  1913     001E                     	;# 
  1914     001F                     	;# 
  1915     008C                     	;# 
  1916     008D                     	;# 
  1917     008E                     	;# 
  1918     0090                     	;# 
  1919     0091                     	;# 
  1920     0092                     	;# 
  1921     0093                     	;# 
  1922     0094                     	;# 
  1923     0097                     	;# 
  1924     009B                     	;# 
  1925     009B                     	;# 
  1926     009C                     	;# 
  1927     009D                     	;# 
  1928     009E                     	;# 
  1929     009F                     	;# 
  1930     010C                     	;# 
  1931     010D                     	;# 
  1932     010E                     	;# 
  1933     0111                     	;# 
  1934     0112                     	;# 
  1935     0113                     	;# 
  1936     0114                     	;# 
  1937     0115                     	;# 
  1938     0116                     	;# 
  1939     0117                     	;# 
  1940     0118                     	;# 
  1941     0119                     	;# 
  1942     018C                     	;# 
  1943     018D                     	;# 
  1944     018E                     	;# 
  1945     0197                     	;# 
  1946     0199                     	;# 
  1947     0199                     	;# 
  1948     0199                     	;# 
  1949     019A                     	;# 
  1950     019A                     	;# 
  1951     019A                     	;# 
  1952     019B                     	;# 
  1953     019B                     	;# 
  1954     019B                     	;# 
  1955     019B                     	;# 
  1956     019B                     	;# 
  1957     019C                     	;# 
  1958     019C                     	;# 
  1959     019C                     	;# 
  1960     019D                     	;# 
  1961     019D                     	;# 
  1962     019D                     	;# 
  1963     019E                     	;# 
  1964     019E                     	;# 
  1965     019E                     	;# 
  1966     019F                     	;# 
  1967     019F                     	;# 
  1968     019F                     	;# 
  1969     019F                     	;# 
  1970     019F                     	;# 
  1971     020C                     	;# 
  1972     020D                     	;# 
  1973     020E                     	;# 
  1974     0211                     	;# 
  1975     0211                     	;# 
  1976     0212                     	;# 
  1977     0212                     	;# 
  1978     0213                     	;# 
  1979     0213                     	;# 
  1980     0214                     	;# 
  1981     0214                     	;# 
  1982     0215                     	;# 
  1983     0215                     	;# 
  1984     0215                     	;# 
  1985     0215                     	;# 
  1986     0216                     	;# 
  1987     0216                     	;# 
  1988     0217                     	;# 
  1989     0217                     	;# 
  1990     0219                     	;# 
  1991     021A                     	;# 
  1992     021B                     	;# 
  1993     021C                     	;# 
  1994     021D                     	;# 
  1995     021D                     	;# 
  1996     021E                     	;# 
  1997     021F                     	;# 
  1998     028C                     	;# 
  1999     028D                     	;# 
  2000     028E                     	;# 
  2001     0291                     	;# 
  2002     0291                     	;# 
  2003     0292                     	;# 
  2004     0293                     	;# 
  2005     0294                     	;# 
  2006     0295                     	;# 
  2007     0295                     	;# 
  2008     0296                     	;# 
  2009     0297                     	;# 
  2010     0298                     	;# 
  2011     029F                     	;# 
  2012     030C                     	;# 
  2013     030D                     	;# 
  2014     030E                     	;# 
  2015     0311                     	;# 
  2016     0311                     	;# 
  2017     0312                     	;# 
  2018     0313                     	;# 
  2019     0314                     	;# 
  2020     0315                     	;# 
  2021     0315                     	;# 
  2022     0316                     	;# 
  2023     0317                     	;# 
  2024     0318                     	;# 
  2025     038C                     	;# 
  2026     038D                     	;# 
  2027     038E                     	;# 
  2028     0391                     	;# 
  2029     0392                     	;# 
  2030     0393                     	;# 
  2031     0394                     	;# 
  2032     0395                     	;# 
  2033     0396                     	;# 
  2034     0397                     	;# 
  2035     0398                     	;# 
  2036     0399                     	;# 
  2037     039A                     	;# 
  2038     039C                     	;# 
  2039     039D                     	;# 
  2040     039E                     	;# 
  2041     039F                     	;# 
  2042     0411                     	;# 
  2043     0411                     	;# 
  2044     0412                     	;# 
  2045     0413                     	;# 
  2046     0414                     	;# 
  2047     0415                     	;# 
  2048     0416                     	;# 
  2049     0417                     	;# 
  2050     0418                     	;# 
  2051     0418                     	;# 
  2052     0419                     	;# 
  2053     041A                     	;# 
  2054     041B                     	;# 
  2055     041C                     	;# 
  2056     041D                     	;# 
  2057     041E                     	;# 
  2058     041F                     	;# 
  2059     0498                     	;# 
  2060     0498                     	;# 
  2061     0499                     	;# 
  2062     049A                     	;# 
  2063     049B                     	;# 
  2064     049B                     	;# 
  2065     049C                     	;# 
  2066     049D                     	;# 
  2067     049E                     	;# 
  2068     049F                     	;# 
  2069     0617                     	;# 
  2070     0618                     	;# 
  2071     0619                     	;# 
  2072     0619                     	;# 
  2073     061A                     	;# 
  2074     061B                     	;# 
  2075     061C                     	;# 
  2076     061C                     	;# 
  2077     061F                     	;# 
  2078     0691                     	;# 
  2079     0692                     	;# 
  2080     0693                     	;# 
  2081     0694                     	;# 
  2082     0695                     	;# 
  2083     0696                     	;# 
  2084     0697                     	;# 
  2085     0698                     	;# 
  2086     0699                     	;# 
  2087     0711                     	;# 
  2088     0712                     	;# 
  2089     0713                     	;# 
  2090     0714                     	;# 
  2091     0715                     	;# 
  2092     0716                     	;# 
  2093     0717                     	;# 
  2094     0718                     	;# 
  2095     0719                     	;# 
  2096     0891                     	;# 
  2097     0891                     	;# 
  2098     0891                     	;# 
  2099     0891                     	;# 
  2100     0891                     	;# 
  2101     0891                     	;# 
  2102     0892                     	;# 
  2103     0892                     	;# 
  2104     0892                     	;# 
  2105     0893                     	;# 
  2106     0893                     	;# 
  2107     0893                     	;# 
  2108     0893                     	;# 
  2109     0893                     	;# 
  2110     0893                     	;# 
  2111     0894                     	;# 
  2112     0894                     	;# 
  2113     0894                     	;# 
  2114     0895                     	;# 
  2115     0895                     	;# 
  2116     0895                     	;# 
  2117     0896                     	;# 
  2118     0896                     	;# 
  2119     0896                     	;# 
  2120     089B                     	;# 
  2121     0911                     	;# 
  2122     0912                     	;# 
  2123     0913                     	;# 
  2124     0914                     	;# 
  2125     0915                     	;# 
  2126     0916                     	;# 
  2127     0918                     	;# 
  2128     0919                     	;# 
  2129     091A                     	;# 
  2130     091B                     	;# 
  2131     091C                     	;# 
  2132     091D                     	;# 
  2133     091E                     	;# 
  2134     091F                     	;# 
  2135     0E0F                     	;# 
  2136     0E10                     	;# 
  2137     0E11                     	;# 
  2138     0E12                     	;# 
  2139     0E13                     	;# 
  2140     0E14                     	;# 
  2141     0E15                     	;# 
  2142     0E16                     	;# 
  2143     0E17                     	;# 
  2144     0E18                     	;# 
  2145     0E19                     	;# 
  2146     0E1A                     	;# 
  2147     0E1B                     	;# 
  2148     0E1C                     	;# 
  2149     0E1D                     	;# 
  2150     0E1E                     	;# 
  2151     0E1F                     	;# 
  2152     0E20                     	;# 
  2153     0E21                     	;# 
  2154     0E22                     	;# 
  2155     0E24                     	;# 
  2156     0E25                     	;# 
  2157     0E28                     	;# 
  2158     0E29                     	;# 
  2159     0E2A                     	;# 
  2160     0E2B                     	;# 
  2161     0E2C                     	;# 
  2162     0E2D                     	;# 
  2163     0E2E                     	;# 
  2164     0E2F                     	;# 
  2165     0E90                     	;# 
  2166     0E91                     	;# 
  2167     0E92                     	;# 
  2168     0E94                     	;# 
  2169     0E95                     	;# 
  2170     0E9C                     	;# 
  2171     0E9D                     	;# 
  2172     0E9E                     	;# 
  2173     0E9F                     	;# 
  2174     0EA0                     	;# 
  2175     0EA1                     	;# 
  2176     0EA2                     	;# 
  2177     0EA3                     	;# 
  2178     0EA4                     	;# 
  2179     0EA5                     	;# 
  2180     0EA6                     	;# 
  2181     0EA7                     	;# 
  2182     0F0F                     	;# 
  2183     0F10                     	;# 
  2184     0F11                     	;# 
  2185     0F12                     	;# 
  2186     0F13                     	;# 
  2187     0F14                     	;# 
  2188     0F15                     	;# 
  2189     0F16                     	;# 
  2190     0F17                     	;# 
  2191     0F18                     	;# 
  2192     0F19                     	;# 
  2193     0F1A                     	;# 
  2194     0F1B                     	;# 
  2195     0F1C                     	;# 
  2196     0F1D                     	;# 
  2197     0F1E                     	;# 
  2198     0F1F                     	;# 
  2199     0F20                     	;# 
  2200     0F21                     	;# 
  2201     0F22                     	;# 
  2202     0F23                     	;# 
  2203     0F24                     	;# 
  2204     0F25                     	;# 
  2205     0F26                     	;# 
  2206     0F27                     	;# 
  2207     0F28                     	;# 
  2208     0F29                     	;# 
  2209     0F2A                     	;# 
  2210     0F2B                     	;# 
  2211     0F2C                     	;# 
  2212     0F2D                     	;# 
  2213     0F2E                     	;# 
  2214     0F2F                     	;# 
  2215     0F30                     	;# 
  2216     0F31                     	;# 
  2217     0F32                     	;# 
  2218     0F33                     	;# 
  2219     0F34                     	;# 
  2220     0F35                     	;# 
  2221     0F36                     	;# 
  2222     0F37                     	;# 
  2223     0FE4                     	;# 
  2224     0FE5                     	;# 
  2225     0FE6                     	;# 
  2226     0FE7                     	;# 
  2227     0FE8                     	;# 
  2228     0FE9                     	;# 
  2229     0FEA                     	;# 
  2230     0FEB                     	;# 
  2231     0FED                     	;# 
  2232     0FEE                     	;# 
  2233     0FEF                     	;# 
  2234     0000                     	;# 
  2235     0001                     	;# 
  2236     0002                     	;# 
  2237     0003                     	;# 
  2238     0004                     	;# 
  2239     0005                     	;# 
  2240     0006                     	;# 
  2241     0007                     	;# 
  2242     0008                     	;# 
  2243     0009                     	;# 
  2244     000A                     	;# 
  2245     000B                     	;# 
  2246     000C                     	;# 
  2247     000D                     	;# 
  2248     000E                     	;# 
  2249     0010                     	;# 
  2250     0011                     	;# 
  2251     0012                     	;# 
  2252     0013                     	;# 
  2253     0014                     	;# 
  2254     0015                     	;# 
  2255     0015                     	;# 
  2256     0016                     	;# 
  2257     0016                     	;# 
  2258     0017                     	;# 
  2259     0018                     	;# 
  2260     0019                     	;# 
  2261     0019                     	;# 
  2262     001A                     	;# 
  2263     001B                     	;# 
  2264     001C                     	;# 
  2265     001D                     	;# 
  2266     001E                     	;# 
  2267     001F                     	;# 
  2268     008C                     	;# 
  2269     008D                     	;# 
  2270     008E                     	;# 
  2271     0090                     	;# 
  2272     0091                     	;# 
  2273     0092                     	;# 
  2274     0093                     	;# 
  2275     0094                     	;# 
  2276     0097                     	;# 
  2277     009B                     	;# 
  2278     009B                     	;# 
  2279     009C                     	;# 
  2280     009D                     	;# 
  2281     009E                     	;# 
  2282     009F                     	;# 
  2283     010C                     	;# 
  2284     010D                     	;# 
  2285     010E                     	;# 
  2286     0111                     	;# 
  2287     0112                     	;# 
  2288     0113                     	;# 
  2289     0114                     	;# 
  2290     0115                     	;# 
  2291     0116                     	;# 
  2292     0117                     	;# 
  2293     0118                     	;# 
  2294     0119                     	;# 
  2295     018C                     	;# 
  2296     018D                     	;# 
  2297     018E                     	;# 
  2298     0197                     	;# 
  2299     0199                     	;# 
  2300     0199                     	;# 
  2301     0199                     	;# 
  2302     019A                     	;# 
  2303     019A                     	;# 
  2304     019A                     	;# 
  2305     019B                     	;# 
  2306     019B                     	;# 
  2307     019B                     	;# 
  2308     019B                     	;# 
  2309     019B                     	;# 
  2310     019C                     	;# 
  2311     019C                     	;# 
  2312     019C                     	;# 
  2313     019D                     	;# 
  2314     019D                     	;# 
  2315     019D                     	;# 
  2316     019E                     	;# 
  2317     019E                     	;# 
  2318     019E                     	;# 
  2319     019F                     	;# 
  2320     019F                     	;# 
  2321     019F                     	;# 
  2322     019F                     	;# 
  2323     019F                     	;# 
  2324     020C                     	;# 
  2325     020D                     	;# 
  2326     020E                     	;# 
  2327     0211                     	;# 
  2328     0211                     	;# 
  2329     0212                     	;# 
  2330     0212                     	;# 
  2331     0213                     	;# 
  2332     0213                     	;# 
  2333     0214                     	;# 
  2334     0214                     	;# 
  2335     0215                     	;# 
  2336     0215                     	;# 
  2337     0215                     	;# 
  2338     0215                     	;# 
  2339     0216                     	;# 
  2340     0216                     	;# 
  2341     0217                     	;# 
  2342     0217                     	;# 
  2343     0219                     	;# 
  2344     021A                     	;# 
  2345     021B                     	;# 
  2346     021C                     	;# 
  2347     021D                     	;# 
  2348     021D                     	;# 
  2349     021E                     	;# 
  2350     021F                     	;# 
  2351     028C                     	;# 
  2352     028D                     	;# 
  2353     028E                     	;# 
  2354     0291                     	;# 
  2355     0291                     	;# 
  2356     0292                     	;# 
  2357     0293                     	;# 
  2358     0294                     	;# 
  2359     0295                     	;# 
  2360     0295                     	;# 
  2361     0296                     	;# 
  2362     0297                     	;# 
  2363     0298                     	;# 
  2364     029F                     	;# 
  2365     030C                     	;# 
  2366     030D                     	;# 
  2367     030E                     	;# 
  2368     0311                     	;# 
  2369     0311                     	;# 
  2370     0312                     	;# 
  2371     0313                     	;# 
  2372     0314                     	;# 
  2373     0315                     	;# 
  2374     0315                     	;# 
  2375     0316                     	;# 
  2376     0317                     	;# 
  2377     0318                     	;# 
  2378     038C                     	;# 
  2379     038D                     	;# 
  2380     038E                     	;# 
  2381     0391                     	;# 
  2382     0392                     	;# 
  2383     0393                     	;# 
  2384     0394                     	;# 
  2385     0395                     	;# 
  2386     0396                     	;# 
  2387     0397                     	;# 
  2388     0398                     	;# 
  2389     0399                     	;# 
  2390     039A                     	;# 
  2391     039C                     	;# 
  2392     039D                     	;# 
  2393     039E                     	;# 
  2394     039F                     	;# 
  2395     0411                     	;# 
  2396     0411                     	;# 
  2397     0412                     	;# 
  2398     0413                     	;# 
  2399     0414                     	;# 
  2400     0415                     	;# 
  2401     0416                     	;# 
  2402     0417                     	;# 
  2403     0418                     	;# 
  2404     0418                     	;# 
  2405     0419                     	;# 
  2406     041A                     	;# 
  2407     041B                     	;# 
  2408     041C                     	;# 
  2409     041D                     	;# 
  2410     041E                     	;# 
  2411     041F                     	;# 
  2412     0498                     	;# 
  2413     0498                     	;# 
  2414     0499                     	;# 
  2415     049A                     	;# 
  2416     049B                     	;# 
  2417     049B                     	;# 
  2418     049C                     	;# 
  2419     049D                     	;# 
  2420     049E                     	;# 
  2421     049F                     	;# 
  2422     0617                     	;# 
  2423     0618                     	;# 
  2424     0619                     	;# 
  2425     0619                     	;# 
  2426     061A                     	;# 
  2427     061B                     	;# 
  2428     061C                     	;# 
  2429     061C                     	;# 
  2430     061F                     	;# 
  2431     0691                     	;# 
  2432     0692                     	;# 
  2433     0693                     	;# 
  2434     0694                     	;# 
  2435     0695                     	;# 
  2436     0696                     	;# 
  2437     0697                     	;# 
  2438     0698                     	;# 
  2439     0699                     	;# 
  2440     0711                     	;# 
  2441     0712                     	;# 
  2442     0713                     	;# 
  2443     0714                     	;# 
  2444     0715                     	;# 
  2445     0716                     	;# 
  2446     0717                     	;# 
  2447     0718                     	;# 
  2448     0719                     	;# 
  2449     0891                     	;# 
  2450     0891                     	;# 
  2451     0891                     	;# 
  2452     0891                     	;# 
  2453     0891                     	;# 
  2454     0891                     	;# 
  2455     0892                     	;# 
  2456     0892                     	;# 
  2457     0892                     	;# 
  2458     0893                     	;# 
  2459     0893                     	;# 
  2460     0893                     	;# 
  2461     0893                     	;# 
  2462     0893                     	;# 
  2463     0893                     	;# 
  2464     0894                     	;# 
  2465     0894                     	;# 
  2466     0894                     	;# 
  2467     0895                     	;# 
  2468     0895                     	;# 
  2469     0895                     	;# 
  2470     0896                     	;# 
  2471     0896                     	;# 
  2472     0896                     	;# 
  2473     089B                     	;# 
  2474     0911                     	;# 
  2475     0912                     	;# 
  2476     0913                     	;# 
  2477     0914                     	;# 
  2478     0915                     	;# 
  2479     0916                     	;# 
  2480     0918                     	;# 
  2481     0919                     	;# 
  2482     091A                     	;# 
  2483     091B                     	;# 
  2484     091C                     	;# 
  2485     091D                     	;# 
  2486     091E                     	;# 
  2487     091F                     	;# 
  2488     0E0F                     	;# 
  2489     0E10                     	;# 
  2490     0E11                     	;# 
  2491     0E12                     	;# 
  2492     0E13                     	;# 
  2493     0E14                     	;# 
  2494     0E15                     	;# 
  2495     0E16                     	;# 
  2496     0E17                     	;# 
  2497     0E18                     	;# 
  2498     0E19                     	;# 
  2499     0E1A                     	;# 
  2500     0E1B                     	;# 
  2501     0E1C                     	;# 
  2502     0E1D                     	;# 
  2503     0E1E                     	;# 
  2504     0E1F                     	;# 
  2505     0E20                     	;# 
  2506     0E21                     	;# 
  2507     0E22                     	;# 
  2508     0E24                     	;# 
  2509     0E25                     	;# 
  2510     0E28                     	;# 
  2511     0E29                     	;# 
  2512     0E2A                     	;# 
  2513     0E2B                     	;# 
  2514     0E2C                     	;# 
  2515     0E2D                     	;# 
  2516     0E2E                     	;# 
  2517     0E2F                     	;# 
  2518     0E90                     	;# 
  2519     0E91                     	;# 
  2520     0E92                     	;# 
  2521     0E94                     	;# 
  2522     0E95                     	;# 
  2523     0E9C                     	;# 
  2524     0E9D                     	;# 
  2525     0E9E                     	;# 
  2526     0E9F                     	;# 
  2527     0EA0                     	;# 
  2528     0EA1                     	;# 
  2529     0EA2                     	;# 
  2530     0EA3                     	;# 
  2531     0EA4                     	;# 
  2532     0EA5                     	;# 
  2533     0EA6                     	;# 
  2534     0EA7                     	;# 
  2535     0F0F                     	;# 
  2536     0F10                     	;# 
  2537     0F11                     	;# 
  2538     0F12                     	;# 
  2539     0F13                     	;# 
  2540     0F14                     	;# 
  2541     0F15                     	;# 
  2542     0F16                     	;# 
  2543     0F17                     	;# 
  2544     0F18                     	;# 
  2545     0F19                     	;# 
  2546     0F1A                     	;# 
  2547     0F1B                     	;# 
  2548     0F1C                     	;# 
  2549     0F1D                     	;# 
  2550     0F1E                     	;# 
  2551     0F1F                     	;# 
  2552     0F20                     	;# 
  2553     0F21                     	;# 
  2554     0F22                     	;# 
  2555     0F23                     	;# 
  2556     0F24                     	;# 
  2557     0F25                     	;# 
  2558     0F26                     	;# 
  2559     0F27                     	;# 
  2560     0F28                     	;# 
  2561     0F29                     	;# 
  2562     0F2A                     	;# 
  2563     0F2B                     	;# 
  2564     0F2C                     	;# 
  2565     0F2D                     	;# 
  2566     0F2E                     	;# 
  2567     0F2F                     	;# 
  2568     0F30                     	;# 
  2569     0F31                     	;# 
  2570     0F32                     	;# 
  2571     0F33                     	;# 
  2572     0F34                     	;# 
  2573     0F35                     	;# 
  2574     0F36                     	;# 
  2575     0F37                     	;# 
  2576     0FE4                     	;# 
  2577     0FE5                     	;# 
  2578     0FE6                     	;# 
  2579     0FE7                     	;# 
  2580     0FE8                     	;# 
  2581     0FE9                     	;# 
  2582     0FEA                     	;# 
  2583     0FEB                     	;# 
  2584     0FED                     	;# 
  2585     0FEE                     	;# 
  2586     0FEF                     	;# 
  2587     0000                     	;# 
  2588     0001                     	;# 
  2589     0002                     	;# 
  2590     0003                     	;# 
  2591     0004                     	;# 
  2592     0005                     	;# 
  2593     0006                     	;# 
  2594     0007                     	;# 
  2595     0008                     	;# 
  2596     0009                     	;# 
  2597     000A                     	;# 
  2598     000B                     	;# 
  2599     000C                     	;# 
  2600     000D                     	;# 
  2601     000E                     	;# 
  2602     0010                     	;# 
  2603     0011                     	;# 
  2604     0012                     	;# 
  2605     0013                     	;# 
  2606     0014                     	;# 
  2607     0015                     	;# 
  2608     0015                     	;# 
  2609     0016                     	;# 
  2610     0016                     	;# 
  2611     0017                     	;# 
  2612     0018                     	;# 
  2613     0019                     	;# 
  2614     0019                     	;# 
  2615     001A                     	;# 
  2616     001B                     	;# 
  2617     001C                     	;# 
  2618     001D                     	;# 
  2619     001E                     	;# 
  2620     001F                     	;# 
  2621     008C                     	;# 
  2622     008D                     	;# 
  2623     008E                     	;# 
  2624     0090                     	;# 
  2625     0091                     	;# 
  2626     0092                     	;# 
  2627     0093                     	;# 
  2628     0094                     	;# 
  2629     0097                     	;# 
  2630     009B                     	;# 
  2631     009B                     	;# 
  2632     009C                     	;# 
  2633     009D                     	;# 
  2634     009E                     	;# 
  2635     009F                     	;# 
  2636     010C                     	;# 
  2637     010D                     	;# 
  2638     010E                     	;# 
  2639     0111                     	;# 
  2640     0112                     	;# 
  2641     0113                     	;# 
  2642     0114                     	;# 
  2643     0115                     	;# 
  2644     0116                     	;# 
  2645     0117                     	;# 
  2646     0118                     	;# 
  2647     0119                     	;# 
  2648     018C                     	;# 
  2649     018D                     	;# 
  2650     018E                     	;# 
  2651     0197                     	;# 
  2652     0199                     	;# 
  2653     0199                     	;# 
  2654     0199                     	;# 
  2655     019A                     	;# 
  2656     019A                     	;# 
  2657     019A                     	;# 
  2658     019B                     	;# 
  2659     019B                     	;# 
  2660     019B                     	;# 
  2661     019B                     	;# 
  2662     019B                     	;# 
  2663     019C                     	;# 
  2664     019C                     	;# 
  2665     019C                     	;# 
  2666     019D                     	;# 
  2667     019D                     	;# 
  2668     019D                     	;# 
  2669     019E                     	;# 
  2670     019E                     	;# 
  2671     019E                     	;# 
  2672     019F                     	;# 
  2673     019F                     	;# 
  2674     019F                     	;# 
  2675     019F                     	;# 
  2676     019F                     	;# 
  2677     020C                     	;# 
  2678     020D                     	;# 
  2679     020E                     	;# 
  2680     0211                     	;# 
  2681     0211                     	;# 
  2682     0212                     	;# 
  2683     0212                     	;# 
  2684     0213                     	;# 
  2685     0213                     	;# 
  2686     0214                     	;# 
  2687     0214                     	;# 
  2688     0215                     	;# 
  2689     0215                     	;# 
  2690     0215                     	;# 
  2691     0215                     	;# 
  2692     0216                     	;# 
  2693     0216                     	;# 
  2694     0217                     	;# 
  2695     0217                     	;# 
  2696     0219                     	;# 
  2697     021A                     	;# 
  2698     021B                     	;# 
  2699     021C                     	;# 
  2700     021D                     	;# 
  2701     021D                     	;# 
  2702     021E                     	;# 
  2703     021F                     	;# 
  2704     028C                     	;# 
  2705     028D                     	;# 
  2706     028E                     	;# 
  2707     0291                     	;# 
  2708     0291                     	;# 
  2709     0292                     	;# 
  2710     0293                     	;# 
  2711     0294                     	;# 
  2712     0295                     	;# 
  2713     0295                     	;# 
  2714     0296                     	;# 
  2715     0297                     	;# 
  2716     0298                     	;# 
  2717     029F                     	;# 
  2718     030C                     	;# 
  2719     030D                     	;# 
  2720     030E                     	;# 
  2721     0311                     	;# 
  2722     0311                     	;# 
  2723     0312                     	;# 
  2724     0313                     	;# 
  2725     0314                     	;# 
  2726     0315                     	;# 
  2727     0315                     	;# 
  2728     0316                     	;# 
  2729     0317                     	;# 
  2730     0318                     	;# 
  2731     038C                     	;# 
  2732     038D                     	;# 
  2733     038E                     	;# 
  2734     0391                     	;# 
  2735     0392                     	;# 
  2736     0393                     	;# 
  2737     0394                     	;# 
  2738     0395                     	;# 
  2739     0396                     	;# 
  2740     0397                     	;# 
  2741     0398                     	;# 
  2742     0399                     	;# 
  2743     039A                     	;# 
  2744     039C                     	;# 
  2745     039D                     	;# 
  2746     039E                     	;# 
  2747     039F                     	;# 
  2748     0411                     	;# 
  2749     0411                     	;# 
  2750     0412                     	;# 
  2751     0413                     	;# 
  2752     0414                     	;# 
  2753     0415                     	;# 
  2754     0416                     	;# 
  2755     0417                     	;# 
  2756     0418                     	;# 
  2757     0418                     	;# 
  2758     0419                     	;# 
  2759     041A                     	;# 
  2760     041B                     	;# 
  2761     041C                     	;# 
  2762     041D                     	;# 
  2763     041E                     	;# 
  2764     041F                     	;# 
  2765     0498                     	;# 
  2766     0498                     	;# 
  2767     0499                     	;# 
  2768     049A                     	;# 
  2769     049B                     	;# 
  2770     049B                     	;# 
  2771     049C                     	;# 
  2772     049D                     	;# 
  2773     049E                     	;# 
  2774     049F                     	;# 
  2775     0617                     	;# 
  2776     0618                     	;# 
  2777     0619                     	;# 
  2778     0619                     	;# 
  2779     061A                     	;# 
  2780     061B                     	;# 
  2781     061C                     	;# 
  2782     061C                     	;# 
  2783     061F                     	;# 
  2784     0691                     	;# 
  2785     0692                     	;# 
  2786     0693                     	;# 
  2787     0694                     	;# 
  2788     0695                     	;# 
  2789     0696                     	;# 
  2790     0697                     	;# 
  2791     0698                     	;# 
  2792     0699                     	;# 
  2793     0711                     	;# 
  2794     0712                     	;# 
  2795     0713                     	;# 
  2796     0714                     	;# 
  2797     0715                     	;# 
  2798     0716                     	;# 
  2799     0717                     	;# 
  2800     0718                     	;# 
  2801     0719                     	;# 
  2802     0891                     	;# 
  2803     0891                     	;# 
  2804     0891                     	;# 
  2805     0891                     	;# 
  2806     0891                     	;# 
  2807     0891                     	;# 
  2808     0892                     	;# 
  2809     0892                     	;# 
  2810     0892                     	;# 
  2811     0893                     	;# 
  2812     0893                     	;# 
  2813     0893                     	;# 
  2814     0893                     	;# 
  2815     0893                     	;# 
  2816     0893                     	;# 
  2817     0894                     	;# 
  2818     0894                     	;# 
  2819     0894                     	;# 
  2820     0895                     	;# 
  2821     0895                     	;# 
  2822     0895                     	;# 
  2823     0896                     	;# 
  2824     0896                     	;# 
  2825     0896                     	;# 
  2826     089B                     	;# 
  2827     0911                     	;# 
  2828     0912                     	;# 
  2829     0913                     	;# 
  2830     0914                     	;# 
  2831     0915                     	;# 
  2832     0916                     	;# 
  2833     0918                     	;# 
  2834     0919                     	;# 
  2835     091A                     	;# 
  2836     091B                     	;# 
  2837     091C                     	;# 
  2838     091D                     	;# 
  2839     091E                     	;# 
  2840     091F                     	;# 
  2841     0E0F                     	;# 
  2842     0E10                     	;# 
  2843     0E11                     	;# 
  2844     0E12                     	;# 
  2845     0E13                     	;# 
  2846     0E14                     	;# 
  2847     0E15                     	;# 
  2848     0E16                     	;# 
  2849     0E17                     	;# 
  2850     0E18                     	;# 
  2851     0E19                     	;# 
  2852     0E1A                     	;# 
  2853     0E1B                     	;# 
  2854     0E1C                     	;# 
  2855     0E1D                     	;# 
  2856     0E1E                     	;# 
  2857     0E1F                     	;# 
  2858     0E20                     	;# 
  2859     0E21                     	;# 
  2860     0E22                     	;# 
  2861     0E24                     	;# 
  2862     0E25                     	;# 
  2863     0E28                     	;# 
  2864     0E29                     	;# 
  2865     0E2A                     	;# 
  2866     0E2B                     	;# 
  2867     0E2C                     	;# 
  2868     0E2D                     	;# 
  2869     0E2E                     	;# 
  2870     0E2F                     	;# 
  2871     0E90                     	;# 
  2872     0E91                     	;# 
  2873     0E92                     	;# 
  2874     0E94                     	;# 
  2875     0E95                     	;# 
  2876     0E9C                     	;# 
  2877     0E9D                     	;# 
  2878     0E9E                     	;# 
  2879     0E9F                     	;# 
  2880     0EA0                     	;# 
  2881     0EA1                     	;# 
  2882     0EA2                     	;# 
  2883     0EA3                     	;# 
  2884     0EA4                     	;# 
  2885     0EA5                     	;# 
  2886     0EA6                     	;# 
  2887     0EA7                     	;# 
  2888     0F0F                     	;# 
  2889     0F10                     	;# 
  2890     0F11                     	;# 
  2891     0F12                     	;# 
  2892     0F13                     	;# 
  2893     0F14                     	;# 
  2894     0F15                     	;# 
  2895     0F16                     	;# 
  2896     0F17                     	;# 
  2897     0F18                     	;# 
  2898     0F19                     	;# 
  2899     0F1A                     	;# 
  2900     0F1B                     	;# 
  2901     0F1C                     	;# 
  2902     0F1D                     	;# 
  2903     0F1E                     	;# 
  2904     0F1F                     	;# 
  2905     0F20                     	;# 
  2906     0F21                     	;# 
  2907     0F22                     	;# 
  2908     0F23                     	;# 
  2909     0F24                     	;# 
  2910     0F25                     	;# 
  2911     0F26                     	;# 
  2912     0F27                     	;# 
  2913     0F28                     	;# 
  2914     0F29                     	;# 
  2915     0F2A                     	;# 
  2916     0F2B                     	;# 
  2917     0F2C                     	;# 
  2918     0F2D                     	;# 
  2919     0F2E                     	;# 
  2920     0F2F                     	;# 
  2921     0F30                     	;# 
  2922     0F31                     	;# 
  2923     0F32                     	;# 
  2924     0F33                     	;# 
  2925     0F34                     	;# 
  2926     0F35                     	;# 
  2927     0F36                     	;# 
  2928     0F37                     	;# 
  2929     0FE4                     	;# 
  2930     0FE5                     	;# 
  2931     0FE6                     	;# 
  2932     0FE7                     	;# 
  2933     0FE8                     	;# 
  2934     0FE9                     	;# 
  2935     0FEA                     	;# 
  2936     0FEB                     	;# 
  2937     0FED                     	;# 
  2938     0FEE                     	;# 
  2939     0FEF                     	;_UART
  2940                           
  2941                           	psect	idataBANK0
  2942     0002                     __pidataBANK0:
  2943                           
  2944                           ;initializer for _CapTouch_Pins
  2945     0002  3404               	retlw	4
  2946     0003  3405               	retlw	5
  2947                           
  2948                           	psect	idataBANK1
  2949     0D35                     __pidataBANK1:
  2950                           
  2951                           ;initializer for _set_temp
  2952     0D35  34FE               	retlw	254
  2953     0D36  34FF               	retlw	255
  2954     0D37  34EA               	retlw	234
  2955     0D38  34FF               	retlw	255
  2956     0D39  34E5               	retlw	229
  2957     0D3A  34FF               	retlw	255
  2958     0D3B  34F1               	retlw	241
  2959     0D3C  34FF               	retlw	255
  2960     0D3D  34EE               	retlw	238
  2961     0D3E  34FF               	retlw	255
  2962                           
  2963                           	psect	idataBANK2
  2964     0E5E                     __pidataBANK2:
  2965                           
  2966                           ;initializer for _Segment_Val
  2967     0E5E  343F               	retlw	63
  2968     0E5F  3406               	retlw	6
  2969     0E60  345B               	retlw	91
  2970     0E61  344F               	retlw	79
  2971     0E62  3466               	retlw	102
  2972     0E63  346D               	retlw	109
  2973     0E64  347D               	retlw	125
  2974     0E65  3407               	retlw	7
  2975     0E66  347F               	retlw	127
  2976     0E67  346F               	retlw	111
  2977     0E68  3400               	retlw	0
  2978     0E69  3440               	retlw	64
  2979     0E6A  3477               	retlw	119
  2980     0E6B  347C               	retlw	124
  2981     0E6C  3439               	retlw	57
  2982     0E6D  345E               	retlw	94
  2983     0E6E  3479               	retlw	121
  2984     0E6F  3471               	retlw	113
  2985     0E70  3400               	retlw	0
  2986                           
  2987                           ;initializer for _cut_in
  2988     0E71  34F3               	retlw	243
  2989     0E72  34FF               	retlw	255
  2990     0E73  34E8               	retlw	232
  2991     0E74  34FF               	retlw	255
  2992     0E75  34E5               	retlw	229
  2993     0E76  34FF               	retlw	255
  2994     0E77  34EF               	retlw	239
  2995     0E78  34FF               	retlw	255
  2996     0E79  34EB               	retlw	235
  2997     0E7A  34FF               	retlw	255
  2998                           
  2999                           	psect	idataBANK3
  3000     0D2B                     __pidataBANK3:
  3001                           
  3002                           ;initializer for _cut_off
  3003     0D2B  34EF               	retlw	239
  3004     0D2C  34FF               	retlw	255
  3005     0D2D  34E4               	retlw	228
  3006     0D2E  34FF               	retlw	255
  3007     0D2F  34E4               	retlw	228
  3008     0D30  34FF               	retlw	255
  3009     0D31  34EB               	retlw	235
  3010     0D32  34FF               	retlw	255
  3011     0D33  34E7               	retlw	231
  3012     0D34  34FF               	retlw	255
  3013     0010                     _PIR0	set	16
  3014     0016                     _TMR0H	set	22
  3015     0018                     _T0CON1	set	24
  3016     0017                     _T0CON0	set	23
  3017     0012                     _PIR2	set	18
  3018     000B                     _INTCON	set	11
  3019     001F                     _T2CON	set	31
  3020     0011                     _PIR1	set	17
  3021     001E                     _PR2	set	30
  3022     009B                     _ADRES	set	155
  3023     0091                     _PIE1	set	145
  3024     0090                     _PIE0	set	144
  3025     008D                     _TRISB	set	141
  3026     008E                     _TRISC	set	142
  3027     0092                     _PIE2	set	146
  3028     009F                     _ADACT	set	159
  3029     009E                     _ADCON1	set	158
  3030     009D                     _ADCON0	set	157
  3031     008C                     _TRISA	set	140
  3032     010D                     _LATB	set	269
  3033     010E                     _LATC	set	270
  3034     0117                     _FVRCON	set	279
  3035     010C                     _LATA	set	268
  3036     019B                     _SP1BRG	set	411
  3037     0199                     _RC1REG	set	409
  3038     019A                     _TX1REG	set	410
  3039     019F                     _BAUD1CON	set	415
  3040     019D                     _RC1STA	set	413
  3041     019E                     _TX1STA	set	414
  3042     018C                     _ANSELA	set	396
  3043     041D                     _PR6	set	1053
  3044     041E                     _T6CON	set	1054
  3045     061F                     _PWMTMRS	set	1567
  3046     0618                     _PWM5DCH	set	1560
  3047     0617                     _PWM5DCL	set	1559
  3048     0619                     _PWM5CON	set	1561
  3049     0E24                     _RXPPS	set	3620
  3050     0E91                     _RA1PPS	set	3729
  3051                           
  3052                           	psect	stringtext1
  3053     1000                     __pstringtext1:
  3054     1000                     STR_1:
  3055     1000  340D               	retlw	13
  3056     1001  340A               	retlw	10
  3057     1002  3444               	retlw	68	;'D'
  3058     1003  3465               	retlw	101	;'e'
  3059     1004  3462               	retlw	98	;'b'
  3060     1005  3475               	retlw	117	;'u'
  3061     1006  3467               	retlw	103	;'g'
  3062     1007  3420               	retlw	32	;' '
  3063     1008  3453               	retlw	83	;'S'
  3064     1009  3474               	retlw	116	;'t'
  3065     100A  3461               	retlw	97	;'a'
  3066     100B  3472               	retlw	114	;'r'
  3067     100C  3474               	retlw	116	;'t'
  3068     100D  3465               	retlw	101	;'e'
  3069     100E  3464               	retlw	100	;'d'
  3070     100F  340D               	retlw	13
  3071     1010  340A               	retlw	10
  3072     1011  3400               	retlw	0
  3073                           
  3074                           	psect	stringtext2
  3075     1012                     __pstringtext2:
  3076     1012                     STR_6:
  3077     1012  3420               	retlw	32	;' '
  3078     1013  3420               	retlw	32	;' '
  3079     1014  3400               	retlw	0
  3080                           
  3081                           	psect	stringtext3
  3082     1015                     __pstringtext3:
  3083     1015                     STR_2:
  3084     1015  342C               	retlw	44	;','
  3085     1016  3400               	retlw	0
  3086                           
  3087                           	psect	stringtext4
  3088     0000                     __pstringtext4:
  3089     100F                     
  3090                           	psect	cinit
  3091     000D                     start_initialization:	
  3092                           ; #config settings
  3093                           
  3094     000D                     __initialization:	;BIGRAM
  3095                           
  3096                           ; Initialize objects allocated to BANK0
  3097     000D  3180  2002  3180   	fcall	__pidataBANK0	;fetch initializer
  3098     0010  00EB               	movwf	__pdataBANK0& (0+127)
  3099     0011  3180  2003  3180   	fcall	__pidataBANK0+1	;fetch initializer
  3100     0014  00EC               	movwf	(__pdataBANK0+1)& (0+127)
  3101                           
  3102                           ; Initialize objects allocated to BANK1
  3103     0015  3035               	movlw	low __pidataBANK1
  3104     0016  0084               	movwf	4
  3105     0017  308D               	movlw	(high __pidataBANK1)| (0+128)
  3106     0018  0085               	movwf	5
  3107     0019  30E3               	movlw	low __pdataBANK1
  3108     001A  0086               	movwf	6
  3109     001B  3000               	movlw	high __pdataBANK1
  3110     001C  0087               	movwf	7
  3111     001D  3000               	movlw	0
  3112     001E  00FF               	movwf	btemp+1
  3113     001F  300A               	movlw	10
  3114     0020  318D  2563  3180   	fcall	init_ram
  3115                           
  3116                           ; Initialize objects allocated to BANK2
  3117     0023  305E               	movlw	low __pidataBANK2
  3118     0024  0084               	movwf	4
  3119     0025  308E               	movlw	(high __pidataBANK2)| (0+128)
  3120     0026  0085               	movwf	5
  3121     0027  3050               	movlw	low __pdataBANK2
  3122     0028  0086               	movwf	6
  3123     0029  3001               	movlw	high __pdataBANK2
  3124     002A  0087               	movwf	7
  3125     002B  3000               	movlw	0
  3126     002C  00FF               	movwf	btemp+1
  3127     002D  301D               	movlw	29
  3128     002E  318D  2563  3180   	fcall	init_ram
  3129                           
  3130                           ; Initialize objects allocated to BANK3
  3131     0031  302B               	movlw	low __pidataBANK3
  3132     0032  0084               	movwf	4
  3133     0033  308D               	movlw	(high __pidataBANK3)| (0+128)
  3134     0034  0085               	movwf	5
  3135     0035  30B2               	movlw	low __pdataBANK3
  3136     0036  0086               	movwf	6
  3137     0037  3001               	movlw	high __pdataBANK3
  3138     0038  0087               	movwf	7
  3139     0039  3000               	movlw	0
  3140     003A  00FF               	movwf	btemp+1
  3141     003B  300A               	movlw	10
  3142     003C  318D  2563  3180   	fcall	init_ram
  3143                           
  3144                           ; Clear objects allocated to BIGRAM
  3145     003F  3020               	movlw	low (0+10016)
  3146     0040  0084               	movwf	4
  3147     0041  3027               	movlw	high (0+10016)
  3148     0042  0085               	movwf	5
  3149     0043  30D0               	movlw	208
  3150     0044  00FE               	movwf	btemp
  3151     0045  3000               	movlw	0
  3152     0046  00FF               	movwf	btemp+1
  3153     0047  318D  2557  3180   	fcall	clear_ram0
  3154                           
  3155                           ; Clear objects allocated to COMMON
  3156     004A  01FB               	clrf	__pbssCOMMON& (0+127)
  3157                           
  3158                           ; Clear objects allocated to BANK0
  3159     004B  01E6               	clrf	__pbssBANK0& (0+127)
  3160     004C  01E7               	clrf	(__pbssBANK0+1)& (0+127)
  3161     004D  01E8               	clrf	(__pbssBANK0+2)& (0+127)
  3162     004E  01E9               	clrf	(__pbssBANK0+3)& (0+127)
  3163     004F  01EA               	clrf	(__pbssBANK0+4)& (0+127)
  3164                           
  3165                           ; Clear objects allocated to BANK1
  3166     0050  30A0               	movlw	low __pbssBANK1
  3167     0051  0084               	movwf	4
  3168     0052  3000               	movlw	high __pbssBANK1
  3169     0053  0085               	movwf	5
  3170     0054  3043               	movlw	67
  3171     0055  00FE               	movwf	btemp
  3172     0056  3000               	movlw	0
  3173     0057  00FF               	movwf	btemp+1
  3174     0058  318D  2557  3180   	fcall	clear_ram0
  3175                           
  3176                           ; Clear objects allocated to BANK2
  3177     005B  3020               	movlw	low __pbssBANK2
  3178     005C  0084               	movwf	4
  3179     005D  3001               	movlw	high __pbssBANK2
  3180     005E  0085               	movwf	5
  3181     005F  3030               	movlw	48
  3182     0060  00FE               	movwf	btemp
  3183     0061  3000               	movlw	0
  3184     0062  00FF               	movwf	btemp+1
  3185     0063  318D  2557  3180   	fcall	clear_ram0
  3186                           
  3187                           ; Clear objects allocated to BANK3
  3188     0066  30A0               	movlw	low __pbssBANK3
  3189     0067  0084               	movwf	4
  3190     0068  3001               	movlw	high __pbssBANK3
  3191     0069  0085               	movwf	5
  3192     006A  3012               	movlw	18
  3193     006B  00FE               	movwf	btemp
  3194     006C  3000               	movlw	0
  3195     006D  00FF               	movwf	btemp+1
  3196     006E  318D  2557  3180   	fcall	clear_ram0
  3197     0071                     end_of_initialization:	
  3198                           ;End of C runtime variable initialization code
  3199                           
  3200     0071                     __end_of__initialization:
  3201     0071  107E               	bcf	int$flags,0	;clear compiler interrupt flag (level 1)
  3202     0072  0020               	movlb	0
  3203     0073  3183  2BB1         	ljmp	_main	;jump to C main() function
  3204                           
  3205                           	psect	bssCOMMON
  3206     007B                     __pbssCOMMON:
  3207     007B                     _Cooling:
  3208     007B                     	ds	1
  3209                           
  3210                           	psect	bssBANK0
  3211     0066                     __pbssBANK0:
  3212     0066                     _Buzzer:
  3213     0066                     	ds	5
  3214                           
  3215                           	psect	dataBANK0
  3216     006B                     __pdataBANK0:
  3217     006B                     _CapTouch_Pins:
  3218     006B                     	ds	2
  3219                           
  3220                           	psect	bssBANK1
  3221     00A0                     __pbssBANK1:
  3222     00A0                     _SevenSegment:
  3223     00A0                     	ds	34
  3224     00C2                     _IIR:
  3225     00C2                     	ds	18
  3226     00D4                     _Timebase:
  3227     00D4                     	ds	15
  3228                           
  3229                           	psect	dataBANK1
  3230     00E3                     __pdataBANK1:
  3231     00E3                     _set_temp:
  3232     00E3                     	ds	10
  3233                           
  3234                           	psect	bssBANK2
  3235     0120                     __pbssBANK2:
  3236     0120                     _CapTouch:
  3237     0120                     	ds	48
  3238                           
  3239                           	psect	dataBANK2
  3240     0150                     __pdataBANK2:
  3241     0150                     _Segment_Val:
  3242     0150                     	ds	19
  3243     0163                     _cut_in:
  3244     0163                     	ds	10
  3245                           
  3246                           	psect	bssBANK3
  3247     01A0                     __pbssBANK3:
  3248     01A0                     _Cooling_Type:
  3249     01A0                     	ds	18
  3250                           
  3251                           	psect	dataBANK3
  3252     01B2                     __pdataBANK3:
  3253     01B2                     _cut_off:
  3254     01B2                     	ds	10
  3255                           
  3256                           	psect	inittext
  3257     0D63                     init_ram:
  3258     0D63  00FE               	movwf	btemp
  3259     0D64                     initloop:
  3260     0D64  0012               	moviw fsr0++
  3261     0D65  001E               	movwi fsr1++
  3262     0D66  3001               	movlw	1
  3263     0D67  02FE               	subwf	btemp,f
  3264     0D68  3000               	movlw	0
  3265     0D69  3BFF               	subwfb	btemp+1,f
  3266     0D6A  087F               	movf	btemp+1,w
  3267     0D6B  047E               	iorwf	btemp,w
  3268     0D6C  1D03               	skipz
  3269     0D6D  2D64               	goto	initloop
  3270     0D6E  3400               	retlw	0
  3271                           
  3272                           	psect	clrtext
  3273     0D57                     clear_ram0:	
  3274                           ;	Called with FSR0 containing the base address, and
  3275                           ;	btemp/btemp+1 has the size to clear
  3276                           
  3277     0D57  0064               	clrwdt	;clear the watchdog before getting into this loop
  3278     0D58                     clrloop0:
  3279     0D58  0180               	clrf	0	;clear RAM location pointed to by FSR
  3280     0D59  3101               	addfsr 0,1
  3281     0D5A  3001               	movlw	1
  3282     0D5B  02FE               	subwf	btemp,f
  3283     0D5C  3000               	movlw	0
  3284     0D5D  3BFF               	subwfb	btemp+1,f
  3285     0D5E  087F               	movf	btemp+1,w
  3286     0D5F  047E               	iorwf	btemp,w
  3287     0D60  1D03               	skipz
  3288     0D61  2D58               	goto	clrloop0	;have we reached the end yet?
  3289     0D62  3400               	retlw	0	;all done for this memory range, return
  3290                           
  3291                           	psect	cstackCOMMON
  3292     0070                     __pcstackCOMMON:
  3293     0070                     ?_Timebase_Init:
  3294     0070                     ?_CapTouch_Init:	
  3295                           ; 1 bytes @ 0x0
  3296                           
  3297     0070                     ?_Timebase_Interrupt_Service_Routine:	
  3298                           ; 1 bytes @ 0x0
  3299                           
  3300     0070                     ?_main:	
  3301                           ; 1 bytes @ 0x0
  3302                           
  3303     0070                     ?_ISRs:	
  3304                           ; 1 bytes @ 0x0
  3305                           
  3306     0070                     ?_CapTouch_Struct_Init:	
  3307                           ; 1 bytes @ 0x0
  3308                           
  3309     0070                     ?_CapTouch_IIR_Butterworth_Struct_Init:	
  3310                           ; 1 bytes @ 0x0
  3311                           
  3312     0070                     ?_CapTouch_Set_Key_Pin_Analog:	
  3313                           ; 1 bytes @ 0x0
  3314                           
  3315     0070                     ?_CapTouch_Set_Key_Pin_Output:	
  3316                           ; 1 bytes @ 0x0
  3317                           
  3318     0070                     ?_CapTouch_Set_Key_Pin_Output_Low:	
  3319                           ; 1 bytes @ 0x0
  3320                           
  3321     0070                     ?_CapTouch_Set_Key_Pin_Output_High:	
  3322                           ; 1 bytes @ 0x0
  3323                           
  3324     0070                     ?_CapTouch_ADC_Register_Config:	
  3325                           ; 1 bytes @ 0x0
  3326                           
  3327     0070                     ?_CapTouch_ADC_Wakeup:	
  3328                           ; 1 bytes @ 0x0
  3329                           
  3330     0070                     ?_CapTouch_ADC_Sleep:	
  3331                           ; 1 bytes @ 0x0
  3332                           
  3333     0070                     ?_CapTouch_Precharge_SH_Cap:	
  3334                           ; 1 bytes @ 0x0
  3335                           
  3336     0070                     ?_CapTouch_ADC_Sample1:	
  3337                           ; 1 bytes @ 0x0
  3338                           
  3339     0070                     ?_CapTouch_Precharge_Button:	
  3340                           ; 1 bytes @ 0x0
  3341                           
  3342     0070                     ?_CapTouch_ADC_Sample2:	
  3343                           ; 1 bytes @ 0x0
  3344                           
  3345     0070                     ?_CapTouch_Read_Delta:	
  3346                           ; 1 bytes @ 0x0
  3347                           
  3348     0070                     ?_CapTouch_Calibration:	
  3349                           ; 1 bytes @ 0x0
  3350                           
  3351     0070                     ?_CapTouch_Response:	
  3352                           ; 1 bytes @ 0x0
  3353                           
  3354     0070                     ?_CapTouch_Check_Trigger:	
  3355                           ; 1 bytes @ 0x0
  3356                           
  3357     0070                     ?_Timebase_Struct_Init:	
  3358                           ; 1 bytes @ 0x0
  3359                           
  3360     0070                     ?_Timebase_Timer_Config:	
  3361                           ; 1 bytes @ 0x0
  3362                           
  3363     0070                     ?_Timebase_Total_Tokens_Executing:	
  3364                           ; 1 bytes @ 0x0
  3365                           
  3366     0070                     ?_Timebase_Add_Token:	
  3367                           ; 1 bytes @ 0x0
  3368                           
  3369     0070                     ?_Timebase_Set_Timer_Reset_Request_Status:	
  3370                           ; 1 bytes @ 0x0
  3371                           
  3372     0070                     ??_Timebase_Set_Timer_Reset_Request_Status:	
  3373                           ; 1 bytes @ 0x0
  3374                           
  3375     0070                     ?_Timebase_ISR_Executables:	
  3376                           ; 1 bytes @ 0x0
  3377                           
  3378     0070                     ?_UART_Struct_Init:	
  3379                           ; 1 bytes @ 0x0
  3380                           
  3381     0070                     ?_UART_Config_Transmitter:	
  3382                           ; 1 bytes @ 0x0
  3383                           
  3384     0070                     ?_UART_Transmit_Byte:	
  3385                           ; 1 bytes @ 0x0
  3386                           
  3387     0070                     ?i1___llmod:	
  3388                           ; 1 bytes @ 0x0
  3389                           
  3390     0070                     i1___llmod@divisor:	
  3391                           ; 4 bytes @ 0x0
  3392                           
  3393                           
  3394                           ; 4 bytes @ 0x0
  3395     0070                     	ds	4
  3396     0074                     i1___llmod@dividend:
  3397                           
  3398                           ; 4 bytes @ 0x4
  3399     0074                     	ds	4
  3400     0078                     ??i1___llmod:
  3401                           
  3402                           ; 1 bytes @ 0x8
  3403     0078                     	ds	1
  3404     0079                     i1___llmod@counter:
  3405                           
  3406                           ; 1 bytes @ 0x9
  3407     0079                     	ds	1
  3408     007A                     ??_Timebase_Interrupt_Service_Routine:
  3409     007A                     ??_Timebase_ISR_Executables:	
  3410                           ; 1 bytes @ 0xA
  3411                           
  3412                           
  3413                           ; 1 bytes @ 0xA
  3414     007A                     	ds	1
  3415     007B                     ??_ISRs:
  3416                           
  3417                           	psect	cstackBANK0
  3418     0020                     __pcstackBANK0:	
  3419                           ; 1 bytes @ 0xB
  3420                           
  3421     0020                     ??_CapTouch_Struct_Init:
  3422     0020                     ??_CapTouch_IIR_Butterworth_Struct_Init:	
  3423                           ; 1 bytes @ 0x0
  3424                           
  3425     0020                     ??_CapTouch_Set_Key_Pin_Analog:	
  3426                           ; 1 bytes @ 0x0
  3427                           
  3428     0020                     ??_CapTouch_Set_Key_Pin_Output:	
  3429                           ; 1 bytes @ 0x0
  3430                           
  3431     0020                     ??_CapTouch_Set_Key_Pin_Output_Low:	
  3432                           ; 1 bytes @ 0x0
  3433                           
  3434     0020                     ??_CapTouch_Set_Key_Pin_Output_High:	
  3435                           ; 1 bytes @ 0x0
  3436                           
  3437     0020                     ??_CapTouch_ADC_Register_Config:	
  3438                           ; 1 bytes @ 0x0
  3439                           
  3440     0020                     ??_CapTouch_ADC_Wakeup:	
  3441                           ; 1 bytes @ 0x0
  3442                           
  3443     0020                     ??_CapTouch_ADC_Sleep:	
  3444                           ; 1 bytes @ 0x0
  3445                           
  3446     0020                     ??_Timebase_Struct_Init:	
  3447                           ; 1 bytes @ 0x0
  3448                           
  3449     0020                     ??_Timebase_Timer_Config:	
  3450                           ; 1 bytes @ 0x0
  3451                           
  3452     0020                     ??_Timebase_Total_Tokens_Executing:	
  3453                           ; 1 bytes @ 0x0
  3454                           
  3455     0020                     ??_Timebase_Add_Token:	
  3456                           ; 1 bytes @ 0x0
  3457                           
  3458     0020                     ??_UART_Struct_Init:	
  3459                           ; 1 bytes @ 0x0
  3460                           
  3461     0020                     ??_UART_Config_Transmitter:	
  3462                           ; 1 bytes @ 0x0
  3463                           
  3464     0020                     ??_UART_Transmit_Byte:	
  3465                           ; 1 bytes @ 0x0
  3466                           
  3467     0020                     ?_CapTouch_Get_Calibration_Value:	
  3468                           ; 1 bytes @ 0x0
  3469                           
  3470     0020                     ?_CapTouch_Get_RawDifferentialADC:	
  3471                           ; 2 bytes @ 0x0
  3472                           
  3473     0020                     ?_CapTouch_ADC_Sample:	
  3474                           ; 2 bytes @ 0x0
  3475                           
  3476     0020                     ?___lmul:	
  3477                           ; 2 bytes @ 0x0
  3478                           
  3479     0020                     ?___lldiv:	
  3480                           ; 4 bytes @ 0x0
  3481                           
  3482     0020                     ?___aldiv:	
  3483                           ; 4 bytes @ 0x0
  3484                           
  3485     0020                     ?___llmod:	
  3486                           ; 4 bytes @ 0x0
  3487                           
  3488     0020                     UART_Transmit_Byte@val:	
  3489                           ; 4 bytes @ 0x0
  3490                           
  3491     0020                     ___lmul@multiplier:	
  3492                           ; 1 bytes @ 0x0
  3493                           
  3494     0020                     ___lldiv@divisor:	
  3495                           ; 4 bytes @ 0x0
  3496                           
  3497     0020                     ___aldiv@divisor:	
  3498                           ; 4 bytes @ 0x0
  3499                           
  3500     0020                     ___llmod@divisor:	
  3501                           ; 4 bytes @ 0x0
  3502                           
  3503                           
  3504                           ; 4 bytes @ 0x0
  3505     0020                     	ds	1
  3506     0021                     ??_Timebase_Init:
  3507     0021                     ?_UART_Transmit_Text:	
  3508                           ; 1 bytes @ 0x1
  3509                           
  3510     0021                     ?_Timebase_Get_SubSeconds_Value:	
  3511                           ; 1 bytes @ 0x1
  3512                           
  3513     0021                     CapTouch_Struct_Init@i:	
  3514                           ; 4 bytes @ 0x1
  3515                           
  3516     0021                     CapTouch_IIR_Butterworth_Struct_Init@i:	
  3517                           ; 1 bytes @ 0x1
  3518                           
  3519     0021                     UART_Transmit_Text@str:	
  3520                           ; 1 bytes @ 0x1
  3521                           
  3522                           
  3523                           ; 2 bytes @ 0x1
  3524     0021                     	ds	1
  3525     0022                     ??_CapTouch_Get_Calibration_Value:
  3526     0022                     ??_CapTouch_Get_RawDifferentialADC:	
  3527                           ; 1 bytes @ 0x2
  3528                           
  3529     0022                     ??_CapTouch_ADC_Sample:	
  3530                           ; 1 bytes @ 0x2
  3531                           
  3532     0022                     CapTouch_Set_Key_Pin_Analog@current_channel:	
  3533                           ; 1 bytes @ 0x2
  3534                           
  3535     0022                     CapTouch_Set_Key_Pin_Output@current_channel:	
  3536                           ; 1 bytes @ 0x2
  3537                           
  3538     0022                     CapTouch_Set_Key_Pin_Output_Low@current_channel:	
  3539                           ; 1 bytes @ 0x2
  3540                           
  3541     0022                     CapTouch_Set_Key_Pin_Output_High@current_channel:	
  3542                           ; 1 bytes @ 0x2
  3543                           
  3544     0022                     CapTouch_Get_RawDifferentialADC@current_channel:	
  3545                           ; 1 bytes @ 0x2
  3546                           
  3547     0022                     CapTouch_Get_Calibration_Value@current_channel:	
  3548                           ; 1 bytes @ 0x2
  3549                           
  3550                           
  3551                           ; 1 bytes @ 0x2
  3552     0022                     	ds	1
  3553     0023                     ??_UART_Transmit_Text:
  3554     0023                     CapTouch_ADC_Sample@res:	
  3555                           ; 1 bytes @ 0x3
  3556                           
  3557                           
  3558                           ; 2 bytes @ 0x3
  3559     0023                     	ds	1
  3560     0024                     UART_Struct_Init@i:
  3561     0024                     ___lmul@multiplicand:	
  3562                           ; 1 bytes @ 0x4
  3563                           
  3564     0024                     ___lldiv@dividend:	
  3565                           ; 4 bytes @ 0x4
  3566                           
  3567     0024                     ___aldiv@dividend:	
  3568                           ; 4 bytes @ 0x4
  3569                           
  3570     0024                     ___llmod@dividend:	
  3571                           ; 4 bytes @ 0x4
  3572                           
  3573                           
  3574                           ; 4 bytes @ 0x4
  3575     0024                     	ds	1
  3576     0025                     ??_Timebase_Get_SubSeconds_Value:
  3577     0025                     CapTouch_ADC_Sample@channel:	
  3578                           ; 1 bytes @ 0x5
  3579                           
  3580                           
  3581                           ; 1 bytes @ 0x5
  3582     0025                     	ds	1
  3583     0026                     ??_CapTouch_Precharge_SH_Cap:
  3584     0026                     ??_CapTouch_ADC_Sample1:	
  3585                           ; 1 bytes @ 0x6
  3586                           
  3587     0026                     ??_CapTouch_Precharge_Button:	
  3588                           ; 1 bytes @ 0x6
  3589                           
  3590     0026                     ??_CapTouch_ADC_Sample2:	
  3591                           ; 1 bytes @ 0x6
  3592                           
  3593     0026                     CapTouch_Precharge_SH_Cap@current_channel:	
  3594                           ; 1 bytes @ 0x6
  3595                           
  3596     0026                     CapTouch_ADC_Sample1@current_channel:	
  3597                           ; 1 bytes @ 0x6
  3598                           
  3599     0026                     CapTouch_Precharge_Button@current_channel:	
  3600                           ; 1 bytes @ 0x6
  3601                           
  3602     0026                     CapTouch_ADC_Sample2@current_channel:	
  3603                           ; 1 bytes @ 0x6
  3604                           
  3605     0026                     UART_Transmit_Text@i:	
  3606                           ; 1 bytes @ 0x6
  3607                           
  3608                           
  3609                           ; 1 bytes @ 0x6
  3610     0026                     	ds	2
  3611     0028                     ??___lmul:
  3612     0028                     ??___lldiv:	
  3613                           ; 1 bytes @ 0x8
  3614                           
  3615     0028                     ??___aldiv:	
  3616                           ; 1 bytes @ 0x8
  3617                           
  3618     0028                     ??___llmod:	
  3619                           ; 1 bytes @ 0x8
  3620                           
  3621     0028                     ___lmul@product:	
  3622                           ; 1 bytes @ 0x8
  3623                           
  3624                           
  3625                           ; 4 bytes @ 0x8
  3626     0028                     	ds	1
  3627     0029                     ___aldiv@counter:
  3628     0029                     ___llmod@counter:	
  3629                           ; 1 bytes @ 0x9
  3630                           
  3631     0029                     ___lldiv@quotient:	
  3632                           ; 1 bytes @ 0x9
  3633                           
  3634                           
  3635                           ; 4 bytes @ 0x9
  3636     0029                     	ds	1
  3637     002A                     ___aldiv@sign:
  3638                           
  3639                           ; 1 bytes @ 0xA
  3640     002A                     	ds	1
  3641     002B                     ___aldiv@quotient:
  3642                           
  3643                           ; 4 bytes @ 0xB
  3644     002B                     	ds	2
  3645     002D                     ___lldiv@counter:
  3646                           
  3647                           ; 1 bytes @ 0xD
  3648     002D                     	ds	1
  3649     002E                     ?_UART_Init:
  3650     002E                     ?_UART_Transmit_Unsigned_Number:	
  3651                           ; 1 bytes @ 0xE
  3652                           
  3653     002E                     UART_Init@BAUD:	
  3654                           ; 1 bytes @ 0xE
  3655                           
  3656     002E                     UART_Transmit_Unsigned_Number@num:	
  3657                           ; 4 bytes @ 0xE
  3658                           
  3659                           
  3660                           ; 4 bytes @ 0xE
  3661     002E                     	ds	1
  3662     002F                     ?_CapTouch_IIR_Butterworth:
  3663     002F                     CapTouch_IIR_Butterworth@input:	
  3664                           ; 4 bytes @ 0xF
  3665                           
  3666                           
  3667                           ; 4 bytes @ 0xF
  3668     002F                     	ds	3
  3669     0032                     ??_UART_Init:
  3670     0032                     ??_UART_Transmit_Unsigned_Number:	
  3671                           ; 1 bytes @ 0x12
  3672                           
  3673                           
  3674                           ; 1 bytes @ 0x12
  3675     0032                     	ds	1
  3676     0033                     ??_CapTouch_IIR_Butterworth:
  3677     0033                     UART_Transmit_Unsigned_Number@buf:	
  3678                           ; 1 bytes @ 0x13
  3679                           
  3680                           
  3681                           ; 8 bytes @ 0x13
  3682     0033                     	ds	3
  3683     0036                     UART_Init@BRG_VAL:
  3684                           
  3685                           ; 4 bytes @ 0x16
  3686     0036                     	ds	5
  3687     003B                     UART_Transmit_Unsigned_Number@digits:
  3688                           
  3689                           ; 1 bytes @ 0x1B
  3690     003B                     	ds	1
  3691     003C                     UART_Transmit_Unsigned_Number@temp:
  3692                           
  3693                           ; 1 bytes @ 0x1C
  3694     003C                     	ds	1
  3695     003D                     UART_Transmit_Unsigned_Number@i:
  3696                           
  3697                           ; 1 bytes @ 0x1D
  3698     003D                     	ds	1
  3699     003E                     ?_UART_Transmit_Number:
  3700     003E                     UART_Transmit_Number@num:	
  3701                           ; 1 bytes @ 0x1E
  3702                           
  3703                           
  3704                           ; 4 bytes @ 0x1E
  3705     003E                     	ds	1
  3706     003F                     CapTouch_IIR_Butterworth@channel:
  3707                           
  3708                           ; 1 bytes @ 0x1F
  3709     003F                     	ds	1
  3710     0040                     ??_CapTouch_Read_Delta:
  3711                           
  3712                           ; 1 bytes @ 0x20
  3713     0040                     	ds	2
  3714     0042                     ??_UART_Transmit_Number:
  3715     0042                     CapTouch_Read_Delta@delta:	
  3716                           ; 1 bytes @ 0x22
  3717                           
  3718                           
  3719                           ; 2 bytes @ 0x22
  3720     0042                     	ds	2
  3721     0044                     CapTouch_Read_Delta@temp:
  3722                           
  3723                           ; 4 bytes @ 0x24
  3724     0044                     	ds	4
  3725     0048                     CapTouch_Read_Delta@current_channel:
  3726                           
  3727                           ; 1 bytes @ 0x28
  3728     0048                     	ds	1
  3729     0049                     ??_CapTouch_Calibration:
  3730     0049                     ??_CapTouch_Response:	
  3731                           ; 1 bytes @ 0x29
  3732                           
  3733                           
  3734                           ; 1 bytes @ 0x29
  3735     0049                     	ds	5
  3736     004E                     CapTouch_Response@current_channel:
  3737                           
  3738                           ; 1 bytes @ 0x2E
  3739     004E                     	ds	1
  3740     004F                     ??_CapTouch_Check_Trigger:
  3741     004F                     CapTouch_Check_Trigger@current_state:	
  3742                           ; 1 bytes @ 0x2F
  3743                           
  3744                           
  3745                           ; 1 bytes @ 0x2F
  3746     004F                     	ds	1
  3747     0050                     CapTouch_Check_Trigger@current_channel:
  3748     0050                     CapTouch_Calibration@i:	
  3749                           ; 1 bytes @ 0x30
  3750                           
  3751                           
  3752                           ; 2 bytes @ 0x30
  3753     0050                     	ds	1
  3754     0051                     ?_CapTouch_Check_Touch_Duration:
  3755     0051                     CapTouch_Check_Touch_Duration@refernce_time:	
  3756                           ; 1 bytes @ 0x31
  3757                           
  3758                           
  3759                           ; 4 bytes @ 0x31
  3760     0051                     	ds	1
  3761     0052                     CapTouch_Calibration@i_230:
  3762                           
  3763                           ; 2 bytes @ 0x32
  3764     0052                     	ds	2
  3765     0054                     CapTouch_Calibration@sum:
  3766                           
  3767                           ; 8 bytes @ 0x34
  3768     0054                     	ds	1
  3769     0055                     ??_CapTouch_Check_Touch_Duration:
  3770                           
  3771                           ; 1 bytes @ 0x35
  3772     0055                     	ds	5
  3773     005A                     CapTouch_Check_Touch_Duration@duration:
  3774                           
  3775                           ; 4 bytes @ 0x3A
  3776     005A                     	ds	2
  3777     005C                     CapTouch_Calibration@key:
  3778                           
  3779                           ; 1 bytes @ 0x3C
  3780     005C                     	ds	1
  3781     005D                     CapTouch_Calibration@key_228:
  3782                           
  3783                           ; 1 bytes @ 0x3D
  3784     005D                     	ds	1
  3785     005E                     CapTouch_Calibration@key_231:
  3786     005E                     CapTouch_Check_Touch_Duration@current_channel:	
  3787                           ; 1 bytes @ 0x3E
  3788                           
  3789                           
  3790                           ; 1 bytes @ 0x3E
  3791     005E                     	ds	1
  3792     005F                     ?_CapTouch_Scan_Sensors:
  3793     005F                     CapTouch_Calibration@key_232:	
  3794                           ; 1 bytes @ 0x3F
  3795                           
  3796     005F                     CapTouch_Scan_Sensors@refernce_time:	
  3797                           ; 1 bytes @ 0x3F
  3798                           
  3799                           
  3800                           ; 4 bytes @ 0x3F
  3801     005F                     	ds	1
  3802     0060                     ??_CapTouch_Init:
  3803                           
  3804                           ; 1 bytes @ 0x40
  3805     0060                     	ds	3
  3806     0063                     ??_CapTouch_Scan_Sensors:
  3807                           
  3808                           ; 1 bytes @ 0x43
  3809     0063                     	ds	1
  3810     0064                     CapTouch_Scan_Sensors@channel:
  3811                           
  3812                           ; 1 bytes @ 0x44
  3813     0064                     	ds	1
  3814     0065                     ??_main:
  3815                           
  3816                           ; 1 bytes @ 0x45
  3817     0065                     	ds	1
  3818                           
  3819                           	psect	maintext
  3820     03B1                     __pmaintext:	
  3821 ;;
  3822 ;;Main: autosize = 0, tempsize = 1, incstack = 0, save=0
  3823 ;;
  3824 ;; *************** function _main *****************
  3825 ;; Defined at:
  3826 ;;		line 18 in file "main.c"
  3827 ;; Parameters:    Size  Location     Type
  3828 ;;		None
  3829 ;; Auto vars:     Size  Location     Type
  3830 ;;  cnt             2    0        int 
  3831 ;;  min             2    0        int 
  3832 ;;  max             2    0        int 
  3833 ;;  mode            1    0        unsigned char 
  3834 ;; Return value:  Size  Location     Type
  3835 ;;                  1    wreg      void 
  3836 ;; Registers used:
  3837 ;;		wreg, fsr0l, fsr0h, fsr1l, fsr1h, status,2, status,0, pclath, cstack
  3838 ;; Tracked objects:
  3839 ;;		On entry : B1F/0
  3840 ;;		On exit  : 0/0
  3841 ;;		Unchanged: 0/0
  3842 ;; Data sizes:     COMMON   BANK0   BANK1   BANK2   BANK3   BANK4   BANK5   BANK6   BANK7   BANK8   BANK9  BANK10  BANK1
      +1  BANK12  BANK13  BANK14  BANK15  BANK16  BANK17  BANK18  BANK19  BANK20  BANK21  BANK22  BANK23  BANK24  BANK25
  3843 ;;      Params:         0       0       0       0       0       0       0       0       0       0       0       0       
      +0       0       0       0       0       0       0       0       0       0       0       0       0       0       0
  3844 ;;      Locals:         0       0       0       0       0       0       0       0       0       0       0       0       
      +0       0       0       0       0       0       0       0       0       0       0       0       0       0       0
  3845 ;;      Temps:          0       1       0       0       0       0       0       0       0       0       0       0       
      +0       0       0       0       0       0       0       0       0       0       0       0       0       0       0
  3846 ;;      Totals:         0       1       0       0       0       0       0       0       0       0       0       0       
      +0       0       0       0       0       0       0       0       0       0       0       0       0       0       0
  3847 ;;Total ram usage:        1 bytes
  3848 ;; Hardware stack levels required when called: 11
  3849 ;; This function calls:
  3850 ;;		_CapTouch_Get_Calibration_Value
  3851 ;;		_CapTouch_Get_RawDifferentialADC
  3852 ;;		_CapTouch_Init
  3853 ;;		_CapTouch_Scan_Sensors
  3854 ;;		_Timebase_Get_SubSeconds_Value
  3855 ;;		_Timebase_Init
  3856 ;;		_UART_Init
  3857 ;;		_UART_Transmit_Number
  3858 ;;		_UART_Transmit_Text
  3859 ;; This function is called by:
  3860 ;;		Startup code after reset
  3861 ;; This function uses a non-reentrant model
  3862 ;;
  3863                           
  3864     03B1                     _main:	
  3865                           ;psect for function _main
  3866                           
  3867     03B1                     l3555:	
  3868                           ;incstack = 0
  3869                           ; Regs used in _main: [wreg-fsr1h+status,2+status,0+pclath+cstack]
  3870                           
  3871                           
  3872                           ;main.c: 19: Timebase_Init();
  3873     03B1  318D  251A  3183   	fcall	_Timebase_Init
  3874     03B4                     l3557:
  3875                           
  3876                           ;main.c: 20: CapTouch_Init();
  3877     03B4  318D  256F  3183   	fcall	_CapTouch_Init
  3878     03B7                     l3559:
  3879                           
  3880                           ;main.c: 21: UART_Init(9600);
  3881     03B7  3000               	movlw	0
  3882     03B8  0020               	movlb	0	; select bank0
  3883     03B9  00B1               	movwf	UART_Init@BAUD+3
  3884     03BA  3000               	movlw	0
  3885     03BB  00B0               	movwf	UART_Init@BAUD+2
  3886     03BC  3025               	movlw	37
  3887     03BD  00AF               	movwf	UART_Init@BAUD+1
  3888     03BE  3080               	movlw	128
  3889     03BF  00AE               	movwf	UART_Init@BAUD
  3890     03C0  3187  271E  3183   	fcall	_UART_Init
  3891                           
  3892                           ;main.c: 22: UART_Transmit_Text("\r\nDebug Started\r\n");
  3893     03C3  3000               	movlw	low (STR_1| (0+32768))
  3894     03C4  0020               	movlb	0	; select bank0
  3895     03C5  00A1               	movwf	UART_Transmit_Text@str
  3896     03C6  3090               	movlw	high (STR_1| (0+32768))
  3897     03C7  00A2               	movwf	UART_Transmit_Text@str+1
  3898     03C8  318F  2737  3183   	fcall	_UART_Transmit_Text
  3899     03CB                     l3561:
  3900     03CB                     l3563:
  3901     03CB                     l3565:
  3902     03CB                     l3567:
  3903                           
  3904                           ;main.c: 39: CapTouch_Scan_Sensors(Timebase_Get_SubSeconds_Value());
  3905     03CB  318D  25B8  3183   	fcall	_Timebase_Get_SubSeconds_Value
  3906     03CE  0020               	movlb	0	; select bank0
  3907     03CF  0824               	movf	?_Timebase_Get_SubSeconds_Value+3,w
  3908     03D0  00E2               	movwf	CapTouch_Scan_Sensors@refernce_time+3
  3909     03D1  0823               	movf	?_Timebase_Get_SubSeconds_Value+2,w
  3910     03D2  00E1               	movwf	CapTouch_Scan_Sensors@refernce_time+2
  3911     03D3  0822               	movf	?_Timebase_Get_SubSeconds_Value+1,w
  3912     03D4  00E0               	movwf	CapTouch_Scan_Sensors@refernce_time+1
  3913     03D5  0821               	movf	?_Timebase_Get_SubSeconds_Value,w
  3914     03D6  00DF               	movwf	CapTouch_Scan_Sensors@refernce_time
  3915     03D7  318E  260C  3183   	fcall	_CapTouch_Scan_Sensors
  3916     03DA                     l3569:
  3917                           
  3918                           ;main.c: 73: UART_Transmit_Number(CapTouch_Get_Calibration_Value(0));
  3919     03DA  3000               	movlw	0
  3920     03DB  318D  253F  3183   	fcall	_CapTouch_Get_Calibration_Value
  3921     03DE  0020               	movlb	0	; select bank0
  3922     03DF  0820               	movf	?_CapTouch_Get_Calibration_Value,w
  3923     03E0  00BE               	movwf	UART_Transmit_Number@num
  3924     03E1  0821               	movf	?_CapTouch_Get_Calibration_Value+1,w
  3925     03E2  00BF               	movwf	UART_Transmit_Number@num+1
  3926     03E3  0D89               	rlf	9,f
  3927     03E4  3B89               	subwfb	9,f
  3928     03E5  0989               	comf	9,f
  3929     03E6  00C0               	movwf	UART_Transmit_Number@num+2
  3930     03E7  00C1               	movwf	UART_Transmit_Number@num+3
  3931     03E8  318E  26F4  3183   	fcall	_UART_Transmit_Number
  3932     03EB                     l3571:
  3933                           
  3934                           ;main.c: 74: UART_Transmit_Text(",");
  3935     03EB  3015               	movlw	low (STR_2| (0+32768))
  3936     03EC  0020               	movlb	0	; select bank0
  3937     03ED  00A1               	movwf	UART_Transmit_Text@str
  3938     03EE  3090               	movlw	high (STR_2| (0+32768))
  3939     03EF  00A2               	movwf	UART_Transmit_Text@str+1
  3940     03F0  318F  2737  3183   	fcall	_UART_Transmit_Text
  3941     03F3                     l3573:
  3942                           
  3943                           ;main.c: 75: UART_Transmit_Number(CapTouch_Get_RawDifferentialADC(0));
  3944     03F3  3000               	movlw	0
  3945     03F4  318D  254B  3183   	fcall	_CapTouch_Get_RawDifferentialADC
  3946     03F7  0020               	movlb	0	; select bank0
  3947     03F8  0820               	movf	?_CapTouch_Get_RawDifferentialADC,w
  3948     03F9  00BE               	movwf	UART_Transmit_Number@num
  3949     03FA  0821               	movf	?_CapTouch_Get_RawDifferentialADC+1,w
  3950     03FB  00BF               	movwf	UART_Transmit_Number@num+1
  3951     03FC  0D89               	rlf	9,f
  3952     03FD  3B89               	subwfb	9,f
  3953     03FE  0989               	comf	9,f
  3954     03FF  00C0               	movwf	UART_Transmit_Number@num+2
  3955     0400  00C1               	movwf	UART_Transmit_Number@num+3
  3956     0401  318E  26F4  3183   	fcall	_UART_Transmit_Number
  3957     0404                     l3575:
  3958                           
  3959                           ;main.c: 76: UART_Transmit_Text(",");
  3960     0404  3015               	movlw	low (STR_2| (0+32768))
  3961     0405  0020               	movlb	0	; select bank0
  3962     0406  00A1               	movwf	UART_Transmit_Text@str
  3963     0407  3090               	movlw	high (STR_2| (0+32768))
  3964     0408  00A2               	movwf	UART_Transmit_Text@str+1
  3965     0409  318F  2737  3183   	fcall	_UART_Transmit_Text
  3966     040C                     l3577:
  3967                           
  3968                           ;main.c: 77: UART_Transmit_Number(CapTouch_Get_Calibration_Value(1));
  3969     040C  3001               	movlw	1
  3970     040D  318D  253F  3183   	fcall	_CapTouch_Get_Calibration_Value
  3971     0410  0020               	movlb	0	; select bank0
  3972     0411  0820               	movf	?_CapTouch_Get_Calibration_Value,w
  3973     0412  00BE               	movwf	UART_Transmit_Number@num
  3974     0413  0821               	movf	?_CapTouch_Get_Calibration_Value+1,w
  3975     0414  00BF               	movwf	UART_Transmit_Number@num+1
  3976     0415  0D89               	rlf	9,f
  3977     0416  3B89               	subwfb	9,f
  3978     0417  0989               	comf	9,f
  3979     0418  00C0               	movwf	UART_Transmit_Number@num+2
  3980     0419  00C1               	movwf	UART_Transmit_Number@num+3
  3981     041A  318E  26F4  3183   	fcall	_UART_Transmit_Number
  3982     041D                     l3579:
  3983                           
  3984                           ;main.c: 78: UART_Transmit_Text(",");
  3985     041D  3015               	movlw	low (STR_2| (0+32768))
  3986     041E  0020               	movlb	0	; select bank0
  3987     041F  00A1               	movwf	UART_Transmit_Text@str
  3988     0420  3090               	movlw	high (STR_2| (0+32768))
  3989     0421  00A2               	movwf	UART_Transmit_Text@str+1
  3990     0422  318F  2737  3183   	fcall	_UART_Transmit_Text
  3991     0425                     l3581:
  3992                           
  3993                           ;main.c: 79: UART_Transmit_Number(CapTouch_Get_RawDifferentialADC(1));
  3994     0425  3001               	movlw	1
  3995     0426  318D  254B  3183   	fcall	_CapTouch_Get_RawDifferentialADC
  3996     0429  0020               	movlb	0	; select bank0
  3997     042A  0820               	movf	?_CapTouch_Get_RawDifferentialADC,w
  3998     042B  00BE               	movwf	UART_Transmit_Number@num
  3999     042C  0821               	movf	?_CapTouch_Get_RawDifferentialADC+1,w
  4000     042D  00BF               	movwf	UART_Transmit_Number@num+1
  4001     042E  0D89               	rlf	9,f
  4002     042F  3B89               	subwfb	9,f
  4003     0430  0989               	comf	9,f
  4004     0431  00C0               	movwf	UART_Transmit_Number@num+2
  4005     0432  00C1               	movwf	UART_Transmit_Number@num+3
  4006     0433  318E  26F4  3183   	fcall	_UART_Transmit_Number
  4007     0436                     l3583:
  4008                           
  4009                           ;main.c: 82: UART_Transmit_Text("\r\n");
  4010     0436  300F               	movlw	low ((STR_1+15)| (0+32768))
  4011     0437  0020               	movlb	0	; select bank0
  4012     0438  00A1               	movwf	UART_Transmit_Text@str
  4013     0439  3090               	movlw	high ((STR_1+15)| (0+32768))
  4014     043A  00A2               	movwf	UART_Transmit_Text@str+1
  4015     043B  318F  2737  3183   	fcall	_UART_Transmit_Text
  4016     043E                     l3585:
  4017                           
  4018                           ;main.c: 83: _delay((unsigned long)((10)*(32000000/4000.0)));
  4019     043E  3068               	movlw	104
  4020     043F  0020               	movlb	0	; select bank0
  4021     0440  00E5               	movwf	??_main
  4022     0441  30E4               	movlw	228
  4023     0442                     u3897:
  4024     0442  0B89               	decfsz	9,f
  4025     0443  2C42               	goto	u3897
  4026     0444  0BE5               	decfsz	??_main,f
  4027     0445  2C42               	goto	u3897
  4028     0446  0000               	nop
  4029     0447  2BCB               	goto	l3567
  4030     0448  3180  280B         	ljmp	start
  4031     044A                     __end_of_main:
  4032                           
  4033                           	psect	text1
  4034     0F37                     __ptext1:	
  4035 ;; *************** function _UART_Transmit_Text *****************
  4036 ;; Defined at:
  4037 ;;		line 235 in file "uart.c"
  4038 ;; Parameters:    Size  Location     Type
  4039 ;;  str             2    1[BANK0 ] PTR unsigned char 
  4040 ;;		 -> STR_6(3), STR_5(3), STR_4(2), STR_3(2), 
  4041 ;;		 -> STR_2(2), STR_1(18), 
  4042 ;; Auto vars:     Size  Location     Type
  4043 ;;  i               1    6[BANK0 ] unsigned char 
  4044 ;; Return value:  Size  Location     Type
  4045 ;;                  1    wreg      void 
  4046 ;; Registers used:
  4047 ;;		wreg, fsr0l, fsr0h, status,2, status,0, pclath, cstack
  4048 ;; Tracked objects:
  4049 ;;		On entry : 0/0
  4050 ;;		On exit  : 0/0
  4051 ;;		Unchanged: 0/0
  4052 ;; Data sizes:     COMMON   BANK0   BANK1   BANK2   BANK3   BANK4   BANK5   BANK6   BANK7   BANK8   BANK9  BANK10  BANK1
      +1  BANK12  BANK13  BANK14  BANK15  BANK16  BANK17  BANK18  BANK19  BANK20  BANK21  BANK22  BANK23  BANK24  BANK25
  4053 ;;      Params:         0       2       0       0       0       0       0       0       0       0       0       0       
      +0       0       0       0       0       0       0       0       0       0       0       0       0       0       0
  4054 ;;      Locals:         0       1       0       0       0       0       0       0       0       0       0       0       
      +0       0       0       0       0       0       0       0       0       0       0       0       0       0       0
  4055 ;;      Temps:          0       3       0       0       0       0       0       0       0       0       0       0       
      +0       0       0       0       0       0       0       0       0       0       0       0       0       0       0
  4056 ;;      Totals:         0       6       0       0       0       0       0       0       0       0       0       0       
      +0       0       0       0       0       0       0       0       0       0       0       0       0       0       0
  4057 ;;Total ram usage:        6 bytes
  4058 ;; Hardware stack levels used: 1
  4059 ;; Hardware stack levels required when called: 5
  4060 ;; This function calls:
  4061 ;;		_UART_Transmit_Byte
  4062 ;; This function is called by:
  4063 ;;		_main
  4064 ;;		_UART_Print_Debug_Data
  4065 ;; This function uses a non-reentrant model
  4066 ;;
  4067                           
  4068     0F37                     _UART_Transmit_Text:	
  4069                           ;psect for function _UART_Transmit_Text
  4070                           
  4071     0F37                     l3291:	
  4072                           ;incstack = 0
  4073                           ; Regs used in _UART_Transmit_Text: [wreg-fsr0h+status,2+status,0+pclath+cstack]
  4074                           
  4075                           
  4076                           ;uart.c: 236: uint8_t i=0;
  4077     0F37  0020               	movlb	0	; select bank0
  4078     0F38  01A6               	clrf	UART_Transmit_Text@i
  4079                           
  4080                           ;uart.c: 237: while(str[i]!='\0'){
  4081     0F39  2F4E               	goto	l3297
  4082     0F3A                     l3293:
  4083                           
  4084                           ;uart.c: 238: UART_Transmit_Byte(str[i]);
  4085     0F3A  0822               	movf	UART_Transmit_Text@str+1,w
  4086     0F3B  00A4               	movwf	??_UART_Transmit_Text+1
  4087     0F3C  0821               	movf	UART_Transmit_Text@str,w
  4088     0F3D  00A3               	movwf	??_UART_Transmit_Text
  4089     0F3E  0826               	movf	UART_Transmit_Text@i,w
  4090     0F3F  0723               	addwf	??_UART_Transmit_Text,w
  4091     0F40  0084               	movwf	4
  4092     0F41  0824               	movf	??_UART_Transmit_Text+1,w
  4093     0F42  1803               	skipnc
  4094     0F43  0A24               	incf	??_UART_Transmit_Text+1,w
  4095     0F44  0085               	movwf	5
  4096     0F45  0800               	movf	0,w	;code access
  4097     0F46  318D  2521  318F   	fcall	_UART_Transmit_Byte
  4098     0F49                     l3295:
  4099                           
  4100                           ;uart.c: 239: i++;
  4101     0F49  3001               	movlw	1
  4102     0F4A  0020               	movlb	0	; select bank0
  4103     0F4B  00A3               	movwf	??_UART_Transmit_Text
  4104     0F4C  0823               	movf	??_UART_Transmit_Text,w
  4105     0F4D  07A6               	addwf	UART_Transmit_Text@i,f
  4106     0F4E                     l3297:
  4107     0F4E  0822               	movf	UART_Transmit_Text@str+1,w
  4108     0F4F  00A4               	movwf	??_UART_Transmit_Text+1
  4109     0F50  0821               	movf	UART_Transmit_Text@str,w
  4110     0F51  00A3               	movwf	??_UART_Transmit_Text
  4111     0F52  0826               	movf	UART_Transmit_Text@i,w
  4112     0F53  0723               	addwf	??_UART_Transmit_Text,w
  4113     0F54  0084               	movwf	4
  4114     0F55  0824               	movf	??_UART_Transmit_Text+1,w
  4115     0F56  1803               	skipnc
  4116     0F57  0A24               	incf	??_UART_Transmit_Text+1,w
  4117     0F58  0085               	movwf	5
  4118     0F59  0012               	moviw fsr0++
  4119     0F5A  1D03               	btfss	3,2
  4120     0F5B  2F5D               	goto	u3091
  4121     0F5C  2F5E               	goto	u3090
  4122     0F5D                     u3091:
  4123     0F5D  2F3A               	goto	l3293
  4124     0F5E                     u3090:
  4125     0F5E                     l705:
  4126     0F5E  0008               	return
  4127     0F5F                     __end_of_UART_Transmit_Text:
  4128                           
  4129                           	psect	text2
  4130     0EF4                     __ptext2:	
  4131 ;; *************** function _UART_Transmit_Number *****************
  4132 ;; Defined at:
  4133 ;;		line 263 in file "uart.c"
  4134 ;; Parameters:    Size  Location     Type
  4135 ;;  num             4   30[BANK0 ] long 
  4136 ;; Auto vars:     Size  Location     Type
  4137 ;;		None
  4138 ;; Return value:  Size  Location     Type
  4139 ;;                  1    wreg      void 
  4140 ;; Registers used:
  4141 ;;		wreg, fsr1l, fsr1h, status,2, status,0, pclath, cstack
  4142 ;; Tracked objects:
  4143 ;;		On entry : 0/0
  4144 ;;		On exit  : 0/0
  4145 ;;		Unchanged: 0/0
  4146 ;; Data sizes:     COMMON   BANK0   BANK1   BANK2   BANK3   BANK4   BANK5   BANK6   BANK7   BANK8   BANK9  BANK10  BANK1
      +1  BANK12  BANK13  BANK14  BANK15  BANK16  BANK17  BANK18  BANK19  BANK20  BANK21  BANK22  BANK23  BANK24  BANK25
  4147 ;;      Params:         0       4       0       0       0       0       0       0       0       0       0       0       
      +0       0       0       0       0       0       0       0       0       0       0       0       0       0       0
  4148 ;;      Locals:         0       0       0       0       0       0       0       0       0       0       0       0       
      +0       0       0       0       0       0       0       0       0       0       0       0       0       0       0
  4149 ;;      Temps:          0       0       0       0       0       0       0       0       0       0       0       0       
      +0       0       0       0       0       0       0       0       0       0       0       0       0       0       0
  4150 ;;      Totals:         0       4       0       0       0       0       0       0       0       0       0       0       
      +0       0       0       0       0       0       0       0       0       0       0       0       0       0       0
  4151 ;;Total ram usage:        4 bytes
  4152 ;; Hardware stack levels used: 1
  4153 ;; Hardware stack levels required when called: 6
  4154 ;; This function calls:
  4155 ;;		_UART_Transmit_Byte
  4156 ;;		_UART_Transmit_Unsigned_Number
  4157 ;; This function is called by:
  4158 ;;		_main
  4159 ;;		_UART_Print_Debug_Data
  4160 ;; This function uses a non-reentrant model
  4161 ;;
  4162                           
  4163     0EF4                     _UART_Transmit_Number:	
  4164                           ;psect for function _UART_Transmit_Number
  4165                           
  4166     0EF4                     l3321:	
  4167                           ;incstack = 0
  4168                           ; Regs used in _UART_Transmit_Number: [wreg+fsr1l+fsr1h+status,2+status,0+pclath+cstack]
  4169                           
  4170                           
  4171                           ;uart.c: 264: if(num<0){UART_Transmit_Byte('-');num=-num;}
  4172     0EF4  0020               	movlb	0	; select bank0
  4173     0EF5  1FC1               	btfss	UART_Transmit_Number@num+3,7
  4174     0EF6  2EF8               	goto	u3111
  4175     0EF7  2EF9               	goto	u3110
  4176     0EF8                     u3111:
  4177     0EF8  2F09               	goto	l3327
  4178     0EF9                     u3110:
  4179     0EF9                     l3323:
  4180     0EF9  302D               	movlw	45
  4181     0EFA  318D  2521  318E   	fcall	_UART_Transmit_Byte
  4182     0EFD                     l3325:
  4183     0EFD  0020               	movlb	0	; select bank0
  4184     0EFE  09BE               	comf	UART_Transmit_Number@num,f
  4185     0EFF  09BF               	comf	UART_Transmit_Number@num+1,f
  4186     0F00  09C0               	comf	UART_Transmit_Number@num+2,f
  4187     0F01  09C1               	comf	UART_Transmit_Number@num+3,f
  4188     0F02  0ABE               	incf	UART_Transmit_Number@num,f
  4189     0F03  1903               	skipnz
  4190     0F04  0ABF               	incf	UART_Transmit_Number@num+1,f
  4191     0F05  1903               	skipnz
  4192     0F06  0AC0               	incf	UART_Transmit_Number@num+2,f
  4193     0F07  1903               	skipnz
  4194     0F08  0AC1               	incf	UART_Transmit_Number@num+3,f
  4195     0F09                     l3327:
  4196                           
  4197                           ;uart.c: 265: UART_Transmit_Unsigned_Number((uint32_t)num);
  4198     0F09  0841               	movf	UART_Transmit_Number@num+3,w
  4199     0F0A  00B1               	movwf	UART_Transmit_Unsigned_Number@num+3
  4200     0F0B  0840               	movf	UART_Transmit_Number@num+2,w
  4201     0F0C  00B0               	movwf	UART_Transmit_Unsigned_Number@num+2
  4202     0F0D  083F               	movf	UART_Transmit_Number@num+1,w
  4203     0F0E  00AF               	movwf	UART_Transmit_Unsigned_Number@num+1
  4204     0F0F  083E               	movf	UART_Transmit_Number@num,w
  4205     0F10  00AE               	movwf	UART_Transmit_Unsigned_Number@num
  4206     0F11  3185  2557  318E   	fcall	_UART_Transmit_Unsigned_Number
  4207     0F14                     l719:
  4208     0F14  0008               	return
  4209     0F15                     __end_of_UART_Transmit_Number:
  4210                           
  4211                           	psect	text3
  4212     0557                     __ptext3:	
  4213 ;; *************** function _UART_Transmit_Unsigned_Number *****************
  4214 ;; Defined at:
  4215 ;;		line 243 in file "uart.c"
  4216 ;; Parameters:    Size  Location     Type
  4217 ;;  num             4   14[BANK0 ] unsigned long 
  4218 ;; Auto vars:     Size  Location     Type
  4219 ;;  temp            1   28[BANK0 ] unsigned char 
  4220 ;;  i               1   29[BANK0 ] unsigned char 
  4221 ;;  buf             8   19[BANK0 ] unsigned char [8]
  4222 ;;  digits          1   27[BANK0 ] unsigned char 
  4223 ;; Return value:  Size  Location     Type
  4224 ;;                  1    wreg      void 
  4225 ;; Registers used:
  4226 ;;		wreg, fsr1l, fsr1h, status,2, status,0, pclath, cstack
  4227 ;; Tracked objects:
  4228 ;;		On entry : 0/0
  4229 ;;		On exit  : 0/0
  4230 ;;		Unchanged: 0/0
  4231 ;; Data sizes:     COMMON   BANK0   BANK1   BANK2   BANK3   BANK4   BANK5   BANK6   BANK7   BANK8   BANK9  BANK10  BANK1
      +1  BANK12  BANK13  BANK14  BANK15  BANK16  BANK17  BANK18  BANK19  BANK20  BANK21  BANK22  BANK23  BANK24  BANK25
  4232 ;;      Params:         0       4       0       0       0       0       0       0       0       0       0       0       
      +0       0       0       0       0       0       0       0       0       0       0       0       0       0       0
  4233 ;;      Locals:         0      11       0       0       0       0       0       0       0       0       0       0       
      +0       0       0       0       0       0       0       0       0       0       0       0       0       0       0
  4234 ;;      Temps:          0       1       0       0       0       0       0       0       0       0       0       0       
      +0       0       0       0       0       0       0       0       0       0       0       0       0       0       0
  4235 ;;      Totals:         0      16       0       0       0       0       0       0       0       0       0       0       
      +0       0       0       0       0       0       0       0       0       0       0       0       0       0       0
  4236 ;;Total ram usage:       16 bytes
  4237 ;; Hardware stack levels used: 1
  4238 ;; Hardware stack levels required when called: 5
  4239 ;; This function calls:
  4240 ;;		_UART_Transmit_Byte
  4241 ;;		___lldiv
  4242 ;;		___llmod
  4243 ;; This function is called by:
  4244 ;;		_UART_Transmit_Number
  4245 ;; This function uses a non-reentrant model
  4246 ;;
  4247                           
  4248     0557                     _UART_Transmit_Unsigned_Number:	
  4249                           ;psect for function _UART_Transmit_Unsigned_Number
  4250                           
  4251     0557                     l3235:	
  4252                           ;incstack = 0
  4253                           ; Regs used in _UART_Transmit_Unsigned_Number: [wreg+fsr1l+fsr1h+status,2+status,0+pclat
      +                          h+cstack]
  4254                           
  4255                           
  4256                           ;uart.c: 244: uint8_t digits=0;
  4257     0557  0020               	movlb	0	; select bank0
  4258     0558  01BB               	clrf	UART_Transmit_Unsigned_Number@digits
  4259     0559                     l3237:
  4260                           
  4261                           ;uart.c: 245: uint8_t buf[8];;uart.c: 246: if(num==0){UART_Transmit_Byte('0');}
  4262     0559  0831               	movf	UART_Transmit_Unsigned_Number@num+3,w
  4263     055A  0430               	iorwf	UART_Transmit_Unsigned_Number@num+2,w
  4264     055B  042F               	iorwf	UART_Transmit_Unsigned_Number@num+1,w
  4265     055C  042E               	iorwf	UART_Transmit_Unsigned_Number@num,w
  4266     055D  1D03               	skipz
  4267     055E  2D60               	goto	u3051
  4268     055F  2D61               	goto	u3050
  4269     0560                     u3051:
  4270     0560  2DA0               	goto	l3247
  4271     0561                     u3050:
  4272     0561                     l3239:
  4273     0561  3030               	movlw	48
  4274     0562  318D  2521  3185   	fcall	_UART_Transmit_Byte
  4275     0565  2DC6               	goto	l715
  4276     0566                     l3241:
  4277                           
  4278                           ;uart.c: 249: buf[digits]=num%10;
  4279     0566  083B               	movf	UART_Transmit_Unsigned_Number@digits,w
  4280     0567  3E33               	addlw	(low (UART_Transmit_Unsigned_Number@buf| 0))& (0+255)
  4281     0568  0086               	movwf	6
  4282     0569  0187               	clrf	7
  4283     056A  3000               	movlw	0
  4284     056B  00A3               	movwf	___llmod@divisor+3
  4285     056C  3000               	movlw	0
  4286     056D  00A2               	movwf	___llmod@divisor+2
  4287     056E  3000               	movlw	0
  4288     056F  00A1               	movwf	___llmod@divisor+1
  4289     0570  300A               	movlw	10
  4290     0571  00A0               	movwf	___llmod@divisor
  4291     0572  0831               	movf	UART_Transmit_Unsigned_Number@num+3,w
  4292     0573  00A7               	movwf	___llmod@dividend+3
  4293     0574  0830               	movf	UART_Transmit_Unsigned_Number@num+2,w
  4294     0575  00A6               	movwf	___llmod@dividend+2
  4295     0576  082F               	movf	UART_Transmit_Unsigned_Number@num+1,w
  4296     0577  00A5               	movwf	___llmod@dividend+1
  4297     0578  082E               	movf	UART_Transmit_Unsigned_Number@num,w
  4298     0579  00A4               	movwf	___llmod@dividend
  4299     057A  3186  2689  3185   	fcall	___llmod
  4300     057D  0020               	movlb	0	; select bank0
  4301     057E  0820               	movf	?___llmod,w
  4302     057F  0081               	movwf	1
  4303     0580                     l3243:
  4304                           
  4305                           ;uart.c: 250: num/=10;
  4306     0580  3000               	movlw	0
  4307     0581  00A3               	movwf	___lldiv@divisor+3
  4308     0582  3000               	movlw	0
  4309     0583  00A2               	movwf	___lldiv@divisor+2
  4310     0584  3000               	movlw	0
  4311     0585  00A1               	movwf	___lldiv@divisor+1
  4312     0586  300A               	movlw	10
  4313     0587  00A0               	movwf	___lldiv@divisor
  4314     0588  0831               	movf	UART_Transmit_Unsigned_Number@num+3,w
  4315     0589  00A7               	movwf	___lldiv@dividend+3
  4316     058A  0830               	movf	UART_Transmit_Unsigned_Number@num+2,w
  4317     058B  00A6               	movwf	___lldiv@dividend+2
  4318     058C  082F               	movf	UART_Transmit_Unsigned_Number@num+1,w
  4319     058D  00A5               	movwf	___lldiv@dividend+1
  4320     058E  082E               	movf	UART_Transmit_Unsigned_Number@num,w
  4321     058F  00A4               	movwf	___lldiv@dividend
  4322     0590  3186  262E  3185   	fcall	___lldiv
  4323     0593  0020               	movlb	0	; select bank0
  4324     0594  0823               	movf	?___lldiv+3,w
  4325     0595  00B1               	movwf	UART_Transmit_Unsigned_Number@num+3
  4326     0596  0822               	movf	?___lldiv+2,w
  4327     0597  00B0               	movwf	UART_Transmit_Unsigned_Number@num+2
  4328     0598  0821               	movf	?___lldiv+1,w
  4329     0599  00AF               	movwf	UART_Transmit_Unsigned_Number@num+1
  4330     059A  0820               	movf	?___lldiv,w
  4331     059B  00AE               	movwf	UART_Transmit_Unsigned_Number@num
  4332     059C                     l3245:
  4333                           
  4334                           ;uart.c: 251: digits++;
  4335     059C  3001               	movlw	1
  4336     059D  00B2               	movwf	??_UART_Transmit_Unsigned_Number
  4337     059E  0832               	movf	??_UART_Transmit_Unsigned_Number,w
  4338     059F  07BB               	addwf	UART_Transmit_Unsigned_Number@digits,f
  4339     05A0                     l3247:
  4340     05A0  0831               	movf	UART_Transmit_Unsigned_Number@num+3,w
  4341     05A1  0430               	iorwf	UART_Transmit_Unsigned_Number@num+2,w
  4342     05A2  042F               	iorwf	UART_Transmit_Unsigned_Number@num+1,w
  4343     05A3  042E               	iorwf	UART_Transmit_Unsigned_Number@num,w
  4344     05A4  1D03               	skipz
  4345     05A5  2DA7               	goto	u3061
  4346     05A6  2DA8               	goto	u3060
  4347     05A7                     u3061:
  4348     05A7  2D66               	goto	l3241
  4349     05A8                     u3060:
  4350     05A8                     l3249:
  4351                           
  4352                           ;uart.c: 252: };uart.c: 253: for(uint8_t i=digits; i>0; i--){
  4353     05A8  083B               	movf	UART_Transmit_Unsigned_Number@digits,w
  4354     05A9  00BD               	movwf	UART_Transmit_Unsigned_Number@i
  4355     05AA                     l3251:
  4356     05AA  083D               	movf	UART_Transmit_Unsigned_Number@i,w
  4357     05AB  1D03               	btfss	3,2
  4358     05AC  2DAE               	goto	u3071
  4359     05AD  2DAF               	goto	u3070
  4360     05AE                     u3071:
  4361     05AE  2DB0               	goto	l3255
  4362     05AF                     u3070:
  4363     05AF  2DC6               	goto	l715
  4364     05B0                     l3255:
  4365                           
  4366                           ;uart.c: 254: uint8_t temp=i;
  4367     05B0  083D               	movf	UART_Transmit_Unsigned_Number@i,w
  4368     05B1  00BC               	movwf	UART_Transmit_Unsigned_Number@temp
  4369     05B2                     l3257:
  4370                           
  4371                           ;uart.c: 255: temp-=1;
  4372     05B2  3001               	movlw	1
  4373     05B3  02BC               	subwf	UART_Transmit_Unsigned_Number@temp,f
  4374     05B4                     l3259:
  4375                           
  4376                           ;uart.c: 256: temp=buf[temp];
  4377     05B4  083C               	movf	UART_Transmit_Unsigned_Number@temp,w
  4378     05B5  3E33               	addlw	(low (UART_Transmit_Unsigned_Number@buf| 0))& (0+255)
  4379     05B6  0086               	movwf	6
  4380     05B7  0187               	clrf	7
  4381     05B8  0801               	movf	1,w
  4382     05B9  00BC               	movwf	UART_Transmit_Unsigned_Number@temp
  4383     05BA                     l3261:
  4384                           
  4385                           ;uart.c: 257: temp+=48;
  4386     05BA  3030               	movlw	48
  4387     05BB  00B2               	movwf	??_UART_Transmit_Unsigned_Number
  4388     05BC  0832               	movf	??_UART_Transmit_Unsigned_Number,w
  4389     05BD  07BC               	addwf	UART_Transmit_Unsigned_Number@temp,f
  4390     05BE                     l3263:
  4391                           
  4392                           ;uart.c: 258: UART_Transmit_Byte(temp);
  4393     05BE  083C               	movf	UART_Transmit_Unsigned_Number@temp,w
  4394     05BF  318D  2521  3185   	fcall	_UART_Transmit_Byte
  4395     05C2                     l3265:
  4396     05C2  3001               	movlw	1
  4397     05C3  0020               	movlb	0	; select bank0
  4398     05C4  02BD               	subwf	UART_Transmit_Unsigned_Number@i,f
  4399     05C5  2DAA               	goto	l3251
  4400     05C6                     l715:
  4401     05C6  0008               	return
  4402     05C7                     __end_of_UART_Transmit_Unsigned_Number:
  4403                           
  4404                           	psect	text4
  4405     0689                     __ptext4:	
  4406 ;; *************** function ___llmod *****************
  4407 ;; Defined at:
  4408 ;;		line 5 in file "C:\Program Files\Microchip\xc8\v2.40\pic\sources\c90\common\llmod.c"
  4409 ;; Parameters:    Size  Location     Type
  4410 ;;  divisor         4    0[BANK0 ] unsigned long 
  4411 ;;  dividend        4    4[BANK0 ] unsigned long 
  4412 ;; Auto vars:     Size  Location     Type
  4413 ;;  counter         1    9[BANK0 ] unsigned char 
  4414 ;; Return value:  Size  Location     Type
  4415 ;;                  4    0[BANK0 ] unsigned long 
  4416 ;; Registers used:
  4417 ;;		wreg, status,2, status,0
  4418 ;; Tracked objects:
  4419 ;;		On entry : 0/0
  4420 ;;		On exit  : 0/0
  4421 ;;		Unchanged: 0/0
  4422 ;; Data sizes:     COMMON   BANK0   BANK1   BANK2   BANK3   BANK4   BANK5   BANK6   BANK7   BANK8   BANK9  BANK10  BANK1
      +1  BANK12  BANK13  BANK14  BANK15  BANK16  BANK17  BANK18  BANK19  BANK20  BANK21  BANK22  BANK23  BANK24  BANK25
  4423 ;;      Params:         0       8       0       0       0       0       0       0       0       0       0       0       
      +0       0       0       0       0       0       0       0       0       0       0       0       0       0       0
  4424 ;;      Locals:         0       1       0       0       0       0       0       0       0       0       0       0       
      +0       0       0       0       0       0       0       0       0       0       0       0       0       0       0
  4425 ;;      Temps:          0       1       0       0       0       0       0       0       0       0       0       0       
      +0       0       0       0       0       0       0       0       0       0       0       0       0       0       0
  4426 ;;      Totals:         0      10       0       0       0       0       0       0       0       0       0       0       
      +0       0       0       0       0       0       0       0       0       0       0       0       0       0       0
  4427 ;;Total ram usage:       10 bytes
  4428 ;; Hardware stack levels used: 1
  4429 ;; Hardware stack levels required when called: 4
  4430 ;; This function calls:
  4431 ;;		Nothing
  4432 ;; This function is called by:
  4433 ;;		_UART_Transmit_Unsigned_Number
  4434 ;; This function uses a non-reentrant model
  4435 ;;
  4436                           
  4437     0689                     ___llmod:	
  4438                           ;psect for function ___llmod
  4439                           
  4440     0689                     l2903:	
  4441                           ;incstack = 0
  4442                           ; Regs used in ___llmod: [wreg+status,2+status,0]
  4443                           
  4444     0689  0020               	movlb	0	; select bank0
  4445     068A  0823               	movf	___llmod@divisor+3,w
  4446     068B  0422               	iorwf	___llmod@divisor+2,w
  4447     068C  0421               	iorwf	___llmod@divisor+1,w
  4448     068D  0420               	iorwf	___llmod@divisor,w
  4449     068E  1903               	skipnz
  4450     068F  2E91               	goto	u2381
  4451     0690  2E92               	goto	u2380
  4452     0691                     u2381:
  4453     0691  2ECB               	goto	l2919
  4454     0692                     u2380:
  4455     0692                     l2905:
  4456     0692  01A9               	clrf	___llmod@counter
  4457     0693  0AA9               	incf	___llmod@counter,f
  4458     0694  2EA0               	goto	l2909
  4459     0695                     l2907:
  4460     0695  3001               	movlw	1
  4461     0696                     u2395:
  4462     0696  35A0               	lslf	___llmod@divisor,f
  4463     0697  0DA1               	rlf	___llmod@divisor+1,f
  4464     0698  0DA2               	rlf	___llmod@divisor+2,f
  4465     0699  0DA3               	rlf	___llmod@divisor+3,f
  4466     069A  0B89               	decfsz	9,f
  4467     069B  2E96               	goto	u2395
  4468     069C  3001               	movlw	1
  4469     069D  00A8               	movwf	??___llmod
  4470     069E  0828               	movf	??___llmod,w
  4471     069F  07A9               	addwf	___llmod@counter,f
  4472     06A0                     l2909:
  4473     06A0  1FA3               	btfss	___llmod@divisor+3,7
  4474     06A1  2EA3               	goto	u2401
  4475     06A2  2EA4               	goto	u2400
  4476     06A3                     u2401:
  4477     06A3  2E95               	goto	l2907
  4478     06A4                     u2400:
  4479     06A4                     l2911:
  4480     06A4  0823               	movf	___llmod@divisor+3,w
  4481     06A5  0227               	subwf	___llmod@dividend+3,w
  4482     06A6  1D03               	skipz
  4483     06A7  2EB2               	goto	u2415
  4484     06A8  0822               	movf	___llmod@divisor+2,w
  4485     06A9  0226               	subwf	___llmod@dividend+2,w
  4486     06AA  1D03               	skipz
  4487     06AB  2EB2               	goto	u2415
  4488     06AC  0821               	movf	___llmod@divisor+1,w
  4489     06AD  0225               	subwf	___llmod@dividend+1,w
  4490     06AE  1D03               	skipz
  4491     06AF  2EB2               	goto	u2415
  4492     06B0  0820               	movf	___llmod@divisor,w
  4493     06B1  0224               	subwf	___llmod@dividend,w
  4494     06B2                     u2415:
  4495     06B2  1C03               	skipc
  4496     06B3  2EB5               	goto	u2411
  4497     06B4  2EB6               	goto	u2410
  4498     06B5                     u2411:
  4499     06B5  2EBE               	goto	l2915
  4500     06B6                     u2410:
  4501     06B6                     l2913:
  4502     06B6  0820               	movf	___llmod@divisor,w
  4503     06B7  02A4               	subwf	___llmod@dividend,f
  4504     06B8  0821               	movf	___llmod@divisor+1,w
  4505     06B9  3BA5               	subwfb	___llmod@dividend+1,f
  4506     06BA  0822               	movf	___llmod@divisor+2,w
  4507     06BB  3BA6               	subwfb	___llmod@dividend+2,f
  4508     06BC  0823               	movf	___llmod@divisor+3,w
  4509     06BD  3BA7               	subwfb	___llmod@dividend+3,f
  4510     06BE                     l2915:
  4511     06BE  3001               	movlw	1
  4512     06BF                     u2425:
  4513     06BF  36A3               	lsrf	___llmod@divisor+3,f
  4514     06C0  0CA2               	rrf	___llmod@divisor+2,f
  4515     06C1  0CA1               	rrf	___llmod@divisor+1,f
  4516     06C2  0CA0               	rrf	___llmod@divisor,f
  4517     06C3  0B89               	decfsz	9,f
  4518     06C4  2EBF               	goto	u2425
  4519     06C5                     l2917:
  4520     06C5  3001               	movlw	1
  4521     06C6  02A9               	subwf	___llmod@counter,f
  4522     06C7  1D03               	btfss	3,2
  4523     06C8  2ECA               	goto	u2431
  4524     06C9  2ECB               	goto	u2430
  4525     06CA                     u2431:
  4526     06CA  2EA4               	goto	l2911
  4527     06CB                     u2430:
  4528     06CB                     l2919:
  4529     06CB  0827               	movf	___llmod@dividend+3,w
  4530     06CC  00A3               	movwf	?___llmod+3
  4531     06CD  0826               	movf	___llmod@dividend+2,w
  4532     06CE  00A2               	movwf	?___llmod+2
  4533     06CF  0825               	movf	___llmod@dividend+1,w
  4534     06D0  00A1               	movwf	?___llmod+1
  4535     06D1  0824               	movf	___llmod@dividend,w
  4536     06D2  00A0               	movwf	?___llmod
  4537     06D3                     l1129:
  4538     06D3  0008               	return
  4539     06D4                     __end_of___llmod:
  4540                           
  4541                           	psect	text5
  4542     0D21                     __ptext5:	
  4543 ;; *************** function _UART_Transmit_Byte *****************
  4544 ;; Defined at:
  4545 ;;		line 202 in file "uart.c"
  4546 ;; Parameters:    Size  Location     Type
  4547 ;;  val             1    wreg     unsigned char 
  4548 ;; Auto vars:     Size  Location     Type
  4549 ;;  val             1    0[BANK0 ] unsigned char 
  4550 ;; Return value:  Size  Location     Type
  4551 ;;                  1    wreg      void 
  4552 ;; Registers used:
  4553 ;;		wreg
  4554 ;; Tracked objects:
  4555 ;;		On entry : 0/0
  4556 ;;		On exit  : 0/0
  4557 ;;		Unchanged: 0/0
  4558 ;; Data sizes:     COMMON   BANK0   BANK1   BANK2   BANK3   BANK4   BANK5   BANK6   BANK7   BANK8   BANK9  BANK10  BANK1
      +1  BANK12  BANK13  BANK14  BANK15  BANK16  BANK17  BANK18  BANK19  BANK20  BANK21  BANK22  BANK23  BANK24  BANK25
  4559 ;;      Params:         0       0       0       0       0       0       0       0       0       0       0       0       
      +0       0       0       0       0       0       0       0       0       0       0       0       0       0       0
  4560 ;;      Locals:         0       1       0       0       0       0       0       0       0       0       0       0       
      +0       0       0       0       0       0       0       0       0       0       0       0       0       0       0
  4561 ;;      Temps:          0       0       0       0       0       0       0       0       0       0       0       0       
      +0       0       0       0       0       0       0       0       0       0       0       0       0       0       0
  4562 ;;      Totals:         0       1       0       0       0       0       0       0       0       0       0       0       
      +0       0       0       0       0       0       0       0       0       0       0       0       0       0       0
  4563 ;;Total ram usage:        1 bytes
  4564 ;; Hardware stack levels used: 1
  4565 ;; Hardware stack levels required when called: 4
  4566 ;; This function calls:
  4567 ;;		Nothing
  4568 ;; This function is called by:
  4569 ;;		_UART_Transmit_Text
  4570 ;;		_UART_Transmit_Unsigned_Number
  4571 ;;		_UART_Transmit_Number
  4572 ;;		_UART_Transmit_Byte_Hex
  4573 ;;		_UART_Transmit_Byte_Bin
  4574 ;; This function uses a non-reentrant model
  4575 ;;
  4576                           
  4577     0D21                     _UART_Transmit_Byte:	
  4578                           ;psect for function _UART_Transmit_Byte
  4579                           
  4580                           
  4581                           ;incstack = 0
  4582                           ; Regs used in _UART_Transmit_Byte: [wreg]
  4583                           ;UART_Transmit_Byte@val stored from wreg
  4584     0D21  0020               	movlb	0	; select bank0
  4585     0D22  00A0               	movwf	UART_Transmit_Byte@val
  4586     0D23                     l2877:
  4587                           
  4588                           ;uart.c: 203: TX1REG=val;
  4589     0D23  0820               	movf	UART_Transmit_Byte@val,w
  4590     0D24  0023               	movlb	3	; select bank3
  4591     0D25  009A               	movwf	26	;volatile
  4592     0D26                     l682:	
  4593                           ;uart.c: 204: while((TX1STA & (1<<1U))==0);
  4594                           
  4595     0D26  1C9E               	btfss	30,1	;volatile
  4596     0D27  2D29               	goto	u2301
  4597     0D28  2D2A               	goto	u2300
  4598     0D29                     u2301:
  4599     0D29  2D26               	goto	l682
  4600     0D2A                     u2300:
  4601     0D2A                     l685:
  4602     0D2A  0008               	return
  4603     0D2B                     __end_of_UART_Transmit_Byte:
  4604                           
  4605                           	psect	text6
  4606     071E                     __ptext6:	
  4607 ;; *************** function _UART_Init *****************
  4608 ;; Defined at:
  4609 ;;		line 184 in file "uart.c"
  4610 ;; Parameters:    Size  Location     Type
  4611 ;;  BAUD            4   14[BANK0 ] unsigned long 
  4612 ;; Auto vars:     Size  Location     Type
  4613 ;;  BRG_VAL         4   22[BANK0 ] unsigned long 
  4614 ;; Return value:  Size  Location     Type
  4615 ;;                  1    wreg      void 
  4616 ;; Registers used:
  4617 ;;		wreg, fsr1l, fsr1h, status,2, status,0, pclath, cstack
  4618 ;; Tracked objects:
  4619 ;;		On entry : 0/0
  4620 ;;		On exit  : 0/0
  4621 ;;		Unchanged: 0/0
  4622 ;; Data sizes:     COMMON   BANK0   BANK1   BANK2   BANK3   BANK4   BANK5   BANK6   BANK7   BANK8   BANK9  BANK10  BANK1
      +1  BANK12  BANK13  BANK14  BANK15  BANK16  BANK17  BANK18  BANK19  BANK20  BANK21  BANK22  BANK23  BANK24  BANK25
  4623 ;;      Params:         0       4       0       0       0       0       0       0       0       0       0       0       
      +0       0       0       0       0       0       0       0       0       0       0       0       0       0       0
  4624 ;;      Locals:         0       4       0       0       0       0       0       0       0       0       0       0       
      +0       0       0       0       0       0       0       0       0       0       0       0       0       0       0
  4625 ;;      Temps:          0       4       0       0       0       0       0       0       0       0       0       0       
      +0       0       0       0       0       0       0       0       0       0       0       0       0       0       0
  4626 ;;      Totals:         0      12       0       0       0       0       0       0       0       0       0       0       
      +0       0       0       0       0       0       0       0       0       0       0       0       0       0       0
  4627 ;;Total ram usage:       12 bytes
  4628 ;; Hardware stack levels used: 1
  4629 ;; Hardware stack levels required when called: 5
  4630 ;; This function calls:
  4631 ;;		_UART_Config_Transmitter
  4632 ;;		_UART_Struct_Init
  4633 ;;		___lldiv
  4634 ;; This function is called by:
  4635 ;;		_main
  4636 ;; This function uses a non-reentrant model
  4637 ;;
  4638                           
  4639     071E                     _UART_Init:	
  4640                           ;psect for function _UART_Init
  4641                           
  4642     071E                     l3277:	
  4643                           ;incstack = 0
  4644                           ; Regs used in _UART_Init: [wreg+fsr1l+fsr1h+status,2+status,0+pclath+cstack]
  4645                           
  4646                           
  4647                           ;uart.c: 185: uint32_t BRG_VAL=32000000;
  4648     071E  3001               	movlw	1
  4649     071F  0020               	movlb	0	; select bank0
  4650     0720  00B9               	movwf	UART_Init@BRG_VAL+3
  4651     0721  30E8               	movlw	232
  4652     0722  00B8               	movwf	UART_Init@BRG_VAL+2
  4653     0723  3048               	movlw	72
  4654     0724  00B7               	movwf	UART_Init@BRG_VAL+1
  4655     0725  3000               	movlw	0
  4656     0726  00B6               	movwf	UART_Init@BRG_VAL
  4657     0727                     l3279:
  4658                           
  4659                           ;uart.c: 186: BRG_VAL=((BRG_VAL/4)/BAUD)-1;
  4660     0727  0831               	movf	UART_Init@BAUD+3,w
  4661     0728  00A3               	movwf	___lldiv@divisor+3
  4662     0729  0830               	movf	UART_Init@BAUD+2,w
  4663     072A  00A2               	movwf	___lldiv@divisor+2
  4664     072B  082F               	movf	UART_Init@BAUD+1,w
  4665     072C  00A1               	movwf	___lldiv@divisor+1
  4666     072D  082E               	movf	UART_Init@BAUD,w
  4667     072E  00A0               	movwf	___lldiv@divisor
  4668     072F  0836               	movf	UART_Init@BRG_VAL,w
  4669     0730  00B2               	movwf	??_UART_Init
  4670     0731  0837               	movf	UART_Init@BRG_VAL+1,w
  4671     0732  00B3               	movwf	??_UART_Init+1
  4672     0733  0838               	movf	UART_Init@BRG_VAL+2,w
  4673     0734  00B4               	movwf	??_UART_Init+2
  4674     0735  0839               	movf	UART_Init@BRG_VAL+3,w
  4675     0736  00B5               	movwf	??_UART_Init+3
  4676     0737  3002               	movlw	2
  4677     0738                     u3085:
  4678     0738  36B5               	lsrf	??_UART_Init+3,f
  4679     0739  0CB4               	rrf	??_UART_Init+2,f
  4680     073A  0CB3               	rrf	??_UART_Init+1,f
  4681     073B  0CB2               	rrf	??_UART_Init,f
  4682     073C                     u3080:
  4683     073C  0B89               	decfsz	9,f
  4684     073D  2F38               	goto	u3085
  4685     073E  0835               	movf	??_UART_Init+3,w
  4686     073F  00A7               	movwf	___lldiv@dividend+3
  4687     0740  0834               	movf	??_UART_Init+2,w
  4688     0741  00A6               	movwf	___lldiv@dividend+2
  4689     0742  0833               	movf	??_UART_Init+1,w
  4690     0743  00A5               	movwf	___lldiv@dividend+1
  4691     0744  0832               	movf	??_UART_Init,w
  4692     0745  00A4               	movwf	___lldiv@dividend
  4693     0746  3186  262E  3187   	fcall	___lldiv
  4694     0749  30FF               	movlw	255
  4695     074A  0020               	movlb	0	; select bank0
  4696     074B  0720               	addwf	?___lldiv,w
  4697     074C  00B6               	movwf	UART_Init@BRG_VAL
  4698     074D  30FF               	movlw	255
  4699     074E  3D21               	addwfc	?___lldiv+1,w
  4700     074F  00B7               	movwf	UART_Init@BRG_VAL+1
  4701     0750  30FF               	movlw	255
  4702     0751  3D22               	addwfc	?___lldiv+2,w
  4703     0752  00B8               	movwf	UART_Init@BRG_VAL+2
  4704     0753  30FF               	movlw	255
  4705     0754  3D23               	addwfc	?___lldiv+3,w
  4706     0755  00B9               	movwf	UART_Init@BRG_VAL+3
  4707     0756                     l3281:
  4708                           
  4709                           ;uart.c: 187: SP1BRG=(uint16_t)BRG_VAL;
  4710     0756  0837               	movf	UART_Init@BRG_VAL+1,w
  4711     0757  0023               	movlb	3	; select bank3
  4712     0758  009C               	movwf	28	;volatile
  4713     0759  0020               	movlb	0	; select bank0
  4714     075A  0836               	movf	UART_Init@BRG_VAL,w
  4715     075B  0023               	movlb	3	; select bank3
  4716     075C  009B               	movwf	27	;volatile
  4717     075D                     l3283:
  4718                           
  4719                           ;uart.c: 188: BAUD1CON |=(1<<3U);;
  4720     075D  159F               	bsf	31,3	;volatile
  4721     075E                     l3285:
  4722                           
  4723                           ;uart.c: 189: TX1STA |= (1<<2U);
  4724     075E  151E               	bsf	30,2	;volatile
  4725     075F                     l3287:
  4726                           
  4727                           ;uart.c: 190: UART_Struct_Init();
  4728     075F  3187  27A5  3187   	fcall	_UART_Struct_Init
  4729     0762                     l3289:
  4730                           
  4731                           ;uart.c: 192: UART_Config_Transmitter();
  4732     0762  318D  2599  3187   	fcall	_UART_Config_Transmitter
  4733     0765                     l679:
  4734     0765  0008               	return
  4735     0766                     __end_of_UART_Init:
  4736                           
  4737                           	psect	text7
  4738     062E                     __ptext7:	
  4739 ;; *************** function ___lldiv *****************
  4740 ;; Defined at:
  4741 ;;		line 5 in file "C:\Program Files\Microchip\xc8\v2.40\pic\sources\c90\common\__lldiv.c"
  4742 ;; Parameters:    Size  Location     Type
  4743 ;;  divisor         4    0[BANK0 ] unsigned long 
  4744 ;;  dividend        4    4[BANK0 ] unsigned long 
  4745 ;; Auto vars:     Size  Location     Type
  4746 ;;  quotient        4    9[BANK0 ] unsigned long 
  4747 ;;  counter         1   13[BANK0 ] unsigned char 
  4748 ;; Return value:  Size  Location     Type
  4749 ;;                  4    0[BANK0 ] unsigned long 
  4750 ;; Registers used:
  4751 ;;		wreg, status,2, status,0
  4752 ;; Tracked objects:
  4753 ;;		On entry : 0/0
  4754 ;;		On exit  : 0/0
  4755 ;;		Unchanged: 0/0
  4756 ;; Data sizes:     COMMON   BANK0   BANK1   BANK2   BANK3   BANK4   BANK5   BANK6   BANK7   BANK8   BANK9  BANK10  BANK1
      +1  BANK12  BANK13  BANK14  BANK15  BANK16  BANK17  BANK18  BANK19  BANK20  BANK21  BANK22  BANK23  BANK24  BANK25
  4757 ;;      Params:         0       8       0       0       0       0       0       0       0       0       0       0       
      +0       0       0       0       0       0       0       0       0       0       0       0       0       0       0
  4758 ;;      Locals:         0       5       0       0       0       0       0       0       0       0       0       0       
      +0       0       0       0       0       0       0       0       0       0       0       0       0       0       0
  4759 ;;      Temps:          0       1       0       0       0       0       0       0       0       0       0       0       
      +0       0       0       0       0       0       0       0       0       0       0       0       0       0       0
  4760 ;;      Totals:         0      14       0       0       0       0       0       0       0       0       0       0       
      +0       0       0       0       0       0       0       0       0       0       0       0       0       0       0
  4761 ;;Total ram usage:       14 bytes
  4762 ;; Hardware stack levels used: 1
  4763 ;; Hardware stack levels required when called: 4
  4764 ;; This function calls:
  4765 ;;		Nothing
  4766 ;; This function is called by:
  4767 ;;		_UART_Init
  4768 ;;		_UART_Transmit_Unsigned_Number
  4769 ;; This function uses a non-reentrant model
  4770 ;;
  4771                           
  4772     062E                     ___lldiv:	
  4773                           ;psect for function ___lldiv
  4774                           
  4775     062E                     l2879:	
  4776                           ;incstack = 0
  4777                           ; Regs used in ___lldiv: [wreg+status,2+status,0]
  4778                           
  4779     062E  3000               	movlw	0
  4780     062F  0020               	movlb	0	; select bank0
  4781     0630  00AC               	movwf	___lldiv@quotient+3
  4782     0631  3000               	movlw	0
  4783     0632  00AB               	movwf	___lldiv@quotient+2
  4784     0633  3000               	movlw	0
  4785     0634  00AA               	movwf	___lldiv@quotient+1
  4786     0635  3000               	movlw	0
  4787     0636  00A9               	movwf	___lldiv@quotient
  4788     0637  0823               	movf	___lldiv@divisor+3,w
  4789     0638  0422               	iorwf	___lldiv@divisor+2,w
  4790     0639  0421               	iorwf	___lldiv@divisor+1,w
  4791     063A  0420               	iorwf	___lldiv@divisor,w
  4792     063B  1903               	skipnz
  4793     063C  2E3E               	goto	u2311
  4794     063D  2E3F               	goto	u2310
  4795     063E                     u2311:
  4796     063E  2E80               	goto	l2899
  4797     063F                     u2310:
  4798     063F                     l2881:
  4799     063F  01AD               	clrf	___lldiv@counter
  4800     0640  0AAD               	incf	___lldiv@counter,f
  4801     0641  2E4D               	goto	l2885
  4802     0642                     l2883:
  4803     0642  3001               	movlw	1
  4804     0643                     u2325:
  4805     0643  35A0               	lslf	___lldiv@divisor,f
  4806     0644  0DA1               	rlf	___lldiv@divisor+1,f
  4807     0645  0DA2               	rlf	___lldiv@divisor+2,f
  4808     0646  0DA3               	rlf	___lldiv@divisor+3,f
  4809     0647  0B89               	decfsz	9,f
  4810     0648  2E43               	goto	u2325
  4811     0649  3001               	movlw	1
  4812     064A  00A8               	movwf	??___lldiv
  4813     064B  0828               	movf	??___lldiv,w
  4814     064C  07AD               	addwf	___lldiv@counter,f
  4815     064D                     l2885:
  4816     064D  1FA3               	btfss	___lldiv@divisor+3,7
  4817     064E  2E50               	goto	u2331
  4818     064F  2E51               	goto	u2330
  4819     0650                     u2331:
  4820     0650  2E42               	goto	l2883
  4821     0651                     u2330:
  4822     0651                     l2887:
  4823     0651  3001               	movlw	1
  4824     0652                     u2345:
  4825     0652  35A9               	lslf	___lldiv@quotient,f
  4826     0653  0DAA               	rlf	___lldiv@quotient+1,f
  4827     0654  0DAB               	rlf	___lldiv@quotient+2,f
  4828     0655  0DAC               	rlf	___lldiv@quotient+3,f
  4829     0656  0B89               	decfsz	9,f
  4830     0657  2E52               	goto	u2345
  4831     0658                     l2889:
  4832     0658  0823               	movf	___lldiv@divisor+3,w
  4833     0659  0227               	subwf	___lldiv@dividend+3,w
  4834     065A  1D03               	skipz
  4835     065B  2E66               	goto	u2355
  4836     065C  0822               	movf	___lldiv@divisor+2,w
  4837     065D  0226               	subwf	___lldiv@dividend+2,w
  4838     065E  1D03               	skipz
  4839     065F  2E66               	goto	u2355
  4840     0660  0821               	movf	___lldiv@divisor+1,w
  4841     0661  0225               	subwf	___lldiv@dividend+1,w
  4842     0662  1D03               	skipz
  4843     0663  2E66               	goto	u2355
  4844     0664  0820               	movf	___lldiv@divisor,w
  4845     0665  0224               	subwf	___lldiv@dividend,w
  4846     0666                     u2355:
  4847     0666  1C03               	skipc
  4848     0667  2E69               	goto	u2351
  4849     0668  2E6A               	goto	u2350
  4850     0669                     u2351:
  4851     0669  2E73               	goto	l2895
  4852     066A                     u2350:
  4853     066A                     l2891:
  4854     066A  0820               	movf	___lldiv@divisor,w
  4855     066B  02A4               	subwf	___lldiv@dividend,f
  4856     066C  0821               	movf	___lldiv@divisor+1,w
  4857     066D  3BA5               	subwfb	___lldiv@dividend+1,f
  4858     066E  0822               	movf	___lldiv@divisor+2,w
  4859     066F  3BA6               	subwfb	___lldiv@dividend+2,f
  4860     0670  0823               	movf	___lldiv@divisor+3,w
  4861     0671  3BA7               	subwfb	___lldiv@dividend+3,f
  4862     0672                     l2893:
  4863     0672  1429               	bsf	___lldiv@quotient,0
  4864     0673                     l2895:
  4865     0673  3001               	movlw	1
  4866     0674                     u2365:
  4867     0674  36A3               	lsrf	___lldiv@divisor+3,f
  4868     0675  0CA2               	rrf	___lldiv@divisor+2,f
  4869     0676  0CA1               	rrf	___lldiv@divisor+1,f
  4870     0677  0CA0               	rrf	___lldiv@divisor,f
  4871     0678  0B89               	decfsz	9,f
  4872     0679  2E74               	goto	u2365
  4873     067A                     l2897:
  4874     067A  3001               	movlw	1
  4875     067B  02AD               	subwf	___lldiv@counter,f
  4876     067C  1D03               	btfss	3,2
  4877     067D  2E7F               	goto	u2371
  4878     067E  2E80               	goto	u2370
  4879     067F                     u2371:
  4880     067F  2E51               	goto	l2887
  4881     0680                     u2370:
  4882     0680                     l2899:
  4883     0680  082C               	movf	___lldiv@quotient+3,w
  4884     0681  00A3               	movwf	?___lldiv+3
  4885     0682  082B               	movf	___lldiv@quotient+2,w
  4886     0683  00A2               	movwf	?___lldiv+2
  4887     0684  082A               	movf	___lldiv@quotient+1,w
  4888     0685  00A1               	movwf	?___lldiv+1
  4889     0686  0829               	movf	___lldiv@quotient,w
  4890     0687  00A0               	movwf	?___lldiv
  4891     0688                     l943:
  4892     0688  0008               	return
  4893     0689                     __end_of___lldiv:
  4894                           
  4895                           	psect	text8
  4896     07A5                     __ptext8:	
  4897 ;; *************** function _UART_Struct_Init *****************
  4898 ;; Defined at:
  4899 ;;		line 147 in file "uart.c"
  4900 ;; Parameters:    Size  Location     Type
  4901 ;;		None
  4902 ;; Auto vars:     Size  Location     Type
  4903 ;;  i               1    4[BANK0 ] unsigned char 
  4904 ;; Return value:  Size  Location     Type
  4905 ;;                  1    wreg      void 
  4906 ;; Registers used:
  4907 ;;		wreg, fsr1l, fsr1h, status,2, status,0
  4908 ;; Tracked objects:
  4909 ;;		On entry : 0/0
  4910 ;;		On exit  : 0/0
  4911 ;;		Unchanged: 0/0
  4912 ;; Data sizes:     COMMON   BANK0   BANK1   BANK2   BANK3   BANK4   BANK5   BANK6   BANK7   BANK8   BANK9  BANK10  BANK1
      +1  BANK12  BANK13  BANK14  BANK15  BANK16  BANK17  BANK18  BANK19  BANK20  BANK21  BANK22  BANK23  BANK24  BANK25
  4913 ;;      Params:         0       0       0       0       0       0       0       0       0       0       0       0       
      +0       0       0       0       0       0       0       0       0       0       0       0       0       0       0
  4914 ;;      Locals:         0       1       0       0       0       0       0       0       0       0       0       0       
      +0       0       0       0       0       0       0       0       0       0       0       0       0       0       0
  4915 ;;      Temps:          0       4       0       0       0       0       0       0       0       0       0       0       
      +0       0       0       0       0       0       0       0       0       0       0       0       0       0       0
  4916 ;;      Totals:         0       5       0       0       0       0       0       0       0       0       0       0       
      +0       0       0       0       0       0       0       0       0       0       0       0       0       0       0
  4917 ;;Total ram usage:        5 bytes
  4918 ;; Hardware stack levels used: 1
  4919 ;; Hardware stack levels required when called: 4
  4920 ;; This function calls:
  4921 ;;		Nothing
  4922 ;; This function is called by:
  4923 ;;		_UART_Init
  4924 ;; This function uses a non-reentrant model
  4925 ;;
  4926                           
  4927     07A5                     _UART_Struct_Init:	
  4928                           ;psect for function _UART_Struct_Init
  4929                           
  4930     07A5                     l3205:	
  4931                           ;incstack = 0
  4932                           ; Regs used in _UART_Struct_Init: [wreg+fsr1l+fsr1h+status,2+status,0]
  4933                           
  4934                           
  4935                           ;uart.c: 148: UART.Error=0x00;
  4936     07A5  3020               	movlw	32
  4937     07A6  0086               	movwf	6
  4938     07A7  3027               	movlw	39
  4939     07A8  0087               	movwf	7
  4940     07A9  3000               	movlw	0
  4941     07AA  3FC0               	movwi [0]fsr1
  4942     07AB                     l3207:
  4943                           
  4944                           ;uart.c: 149: UART.AvailableBytes=0x00;
  4945     07AB  30EA               	movlw	234
  4946     07AC  0086               	movwf	6
  4947     07AD  3027               	movlw	39
  4948     07AE  0087               	movwf	7
  4949     07AF  0181               	clrf	1
  4950     07B0                     l3209:
  4951                           
  4952                           ;uart.c: 150: UART.ReadIndex=0x00;
  4953     07B0  30EB               	movlw	235
  4954     07B1  0086               	movwf	6
  4955     07B2  3027               	movlw	39
  4956     07B3  0087               	movwf	7
  4957     07B4  0181               	clrf	1
  4958     07B5                     l3211:
  4959                           
  4960                           ;uart.c: 151: for(uint8_t i=0;i<200;i++){
  4961     07B5  0020               	movlb	0	; select bank0
  4962     07B6  01A4               	clrf	UART_Struct_Init@i
  4963     07B7                     l3217:
  4964                           
  4965                           ;uart.c: 152: UART.Buffer[i]=0;
  4966     07B7  0824               	movf	UART_Struct_Init@i,w
  4967     07B8  00A0               	movwf	??_UART_Struct_Init
  4968     07B9  01A1               	clrf	??_UART_Struct_Init+1
  4969     07BA  3021               	movlw	33
  4970     07BB  00A2               	movwf	??_UART_Struct_Init+2
  4971     07BC  3027               	movlw	39
  4972     07BD  00A3               	movwf	??_UART_Struct_Init+3
  4973     07BE  0820               	movf	??_UART_Struct_Init,w
  4974     07BF  0722               	addwf	??_UART_Struct_Init+2,w
  4975     07C0  0086               	movwf	6
  4976     07C1  0821               	movf	??_UART_Struct_Init+1,w
  4977     07C2  3D23               	addwfc	??_UART_Struct_Init+3,w
  4978     07C3  0087               	movwf	7
  4979     07C4  0181               	clrf	1
  4980     07C5                     l3219:
  4981     07C5  3001               	movlw	1
  4982     07C6  00A0               	movwf	??_UART_Struct_Init
  4983     07C7  0820               	movf	??_UART_Struct_Init,w
  4984     07C8  07A4               	addwf	UART_Struct_Init@i,f
  4985     07C9                     l3221:
  4986     07C9  30C8               	movlw	200
  4987     07CA  0224               	subwf	UART_Struct_Init@i,w
  4988     07CB  1C03               	skipc
  4989     07CC  2FCE               	goto	u3041
  4990     07CD  2FCF               	goto	u3040
  4991     07CE                     u3041:
  4992     07CE  2FB7               	goto	l3217
  4993     07CF                     u3040:
  4994     07CF                     l3223:
  4995                           
  4996                           ;uart.c: 153: };uart.c: 154: UART.BufferIndex=0;
  4997     07CF  30E9               	movlw	233
  4998     07D0  0086               	movwf	6
  4999     07D1  3027               	movlw	39
  5000     07D2  0087               	movwf	7
  5001     07D3  0181               	clrf	1
  5002                           
  5003                           ;uart.c: 155: UART.LastRecivedTimeStamp=0;
  5004     07D4  30EC               	movlw	236
  5005     07D5  0086               	movwf	6
  5006     07D6  3027               	movlw	39
  5007     07D7  0087               	movwf	7
  5008     07D8  3000               	movlw	0
  5009     07D9  3FC0               	movwi [0]fsr1
  5010     07DA  3FC1               	movwi [1]fsr1
  5011     07DB  3FC2               	movwi [2]fsr1
  5012     07DC  3FC3               	movwi [3]fsr1
  5013     07DD                     l665:
  5014     07DD  0008               	return
  5015     07DE                     __end_of_UART_Struct_Init:
  5016                           
  5017                           	psect	text9
  5018     0D99                     __ptext9:	
  5019 ;; *************** function _UART_Config_Transmitter *****************
  5020 ;; Defined at:
  5021 ;;		line 158 in file "uart.c"
  5022 ;; Parameters:    Size  Location     Type
  5023 ;;		None
  5024 ;; Auto vars:     Size  Location     Type
  5025 ;;		None
  5026 ;; Return value:  Size  Location     Type
  5027 ;;                  1    wreg      void 
  5028 ;; Registers used:
  5029 ;;		wreg, status,2, status,0
  5030 ;; Tracked objects:
  5031 ;;		On entry : 0/0
  5032 ;;		On exit  : 0/0
  5033 ;;		Unchanged: 0/0
  5034 ;; Data sizes:     COMMON   BANK0   BANK1   BANK2   BANK3   BANK4   BANK5   BANK6   BANK7   BANK8   BANK9  BANK10  BANK1
      +1  BANK12  BANK13  BANK14  BANK15  BANK16  BANK17  BANK18  BANK19  BANK20  BANK21  BANK22  BANK23  BANK24  BANK25
  5035 ;;      Params:         0       0       0       0       0       0       0       0       0       0       0       0       
      +0       0       0       0       0       0       0       0       0       0       0       0       0       0       0
  5036 ;;      Locals:         0       0       0       0       0       0       0       0       0       0       0       0       
      +0       0       0       0       0       0       0       0       0       0       0       0       0       0       0
  5037 ;;      Temps:          0       1       0       0       0       0       0       0       0       0       0       0       
      +0       0       0       0       0       0       0       0       0       0       0       0       0       0       0
  5038 ;;      Totals:         0       1       0       0       0       0       0       0       0       0       0       0       
      +0       0       0       0       0       0       0       0       0       0       0       0       0       0       0
  5039 ;;Total ram usage:        1 bytes
  5040 ;; Hardware stack levels used: 1
  5041 ;; Hardware stack levels required when called: 4
  5042 ;; This function calls:
  5043 ;;		Nothing
  5044 ;; This function is called by:
  5045 ;;		_UART_Init
  5046 ;; This function uses a non-reentrant model
  5047 ;;
  5048                           
  5049     0D99                     _UART_Config_Transmitter:	
  5050                           ;psect for function _UART_Config_Transmitter
  5051                           
  5052     0D99                     l3225:	
  5053                           ;incstack = 0
  5054                           ; Regs used in _UART_Config_Transmitter: [wreg+status,2+status,0]
  5055                           
  5056                           
  5057                           ;uart.c: 159: TRISA |=(uint8_t) (1<<1U);
  5058     0D99  0021               	movlb	1	; select bank1
  5059     0D9A  148C               	bsf	12,1	;volatile
  5060     0D9B                     l3227:
  5061                           
  5062                           ;uart.c: 160: ANSELA&=(uint8_t)(~(1<<1U));
  5063     0D9B  30FD               	movlw	253
  5064     0D9C  0020               	movlb	0	; select bank0
  5065     0D9D  00A0               	movwf	??_UART_Config_Transmitter
  5066     0D9E  0820               	movf	??_UART_Config_Transmitter,w
  5067     0D9F  0023               	movlb	3	; select bank3
  5068     0DA0  058C               	andwf	12,f	;volatile
  5069     0DA1                     l3229:
  5070                           
  5071                           ;uart.c: 161: RA1PPS=0b00010100;
  5072     0DA1  3014               	movlw	20
  5073     0DA2  003D               	movlb	29	; select bank29
  5074     0DA3  0091               	movwf	17	;volatile
  5075     0DA4                     l3231:
  5076                           
  5077                           ;uart.c: 162: TX1STA |= (1<<5U);
  5078     0DA4  0023               	movlb	3	; select bank3
  5079     0DA5  169E               	bsf	30,5	;volatile
  5080     0DA6                     l3233:
  5081                           
  5082                           ;uart.c: 163: RC1STA |= (1<<7U);
  5083     0DA6  179D               	bsf	29,7	;volatile
  5084     0DA7                     l668:
  5085     0DA7  0008               	return
  5086     0DA8                     __end_of_UART_Config_Transmitter:
  5087                           
  5088                           	psect	text10
  5089     0D1A                     __ptext10:	
  5090 ;; *************** function _Timebase_Init *****************
  5091 ;; Defined at:
  5092 ;;		line 91 in file "timebase.c"
  5093 ;; Parameters:    Size  Location     Type
  5094 ;;		None
  5095 ;; Auto vars:     Size  Location     Type
  5096 ;;		None
  5097 ;; Return value:  Size  Location     Type
  5098 ;;                  1    wreg      void 
  5099 ;; Registers used:
  5100 ;;		wreg, status,2, status,0, pclath, cstack
  5101 ;; Tracked objects:
  5102 ;;		On entry : 0/0
  5103 ;;		On exit  : 0/0
  5104 ;;		Unchanged: 0/0
  5105 ;; Data sizes:     COMMON   BANK0   BANK1   BANK2   BANK3   BANK4   BANK5   BANK6   BANK7   BANK8   BANK9  BANK10  BANK1
      +1  BANK12  BANK13  BANK14  BANK15  BANK16  BANK17  BANK18  BANK19  BANK20  BANK21  BANK22  BANK23  BANK24  BANK25
  5106 ;;      Params:         0       0       0       0       0       0       0       0       0       0       0       0       
      +0       0       0       0       0       0       0       0       0       0       0       0       0       0       0
  5107 ;;      Locals:         0       0       0       0       0       0       0       0       0       0       0       0       
      +0       0       0       0       0       0       0       0       0       0       0       0       0       0       0
  5108 ;;      Temps:          0       0       0       0       0       0       0       0       0       0       0       0       
      +0       0       0       0       0       0       0       0       0       0       0       0       0       0       0
  5109 ;;      Totals:         0       0       0       0       0       0       0       0       0       0       0       0       
      +0       0       0       0       0       0       0       0       0       0       0       0       0       0       0
  5110 ;;Total ram usage:        0 bytes
  5111 ;; Hardware stack levels used: 1
  5112 ;; Hardware stack levels required when called: 5
  5113 ;; This function calls:
  5114 ;;		_Timebase_Struct_Init
  5115 ;;		_Timebase_Timer_Config
  5116 ;; This function is called by:
  5117 ;;		_main
  5118 ;; This function uses a non-reentrant model
  5119 ;;
  5120                           
  5121     0D1A                     _Timebase_Init:	
  5122                           ;psect for function _Timebase_Init
  5123                           
  5124     0D1A                     l3269:	
  5125                           ;incstack = 0
  5126                           ; Regs used in _Timebase_Init: [wreg+status,2+status,0+pclath+cstack]
  5127                           
  5128                           
  5129                           ;timebase.c: 92: Timebase_Struct_Init();
  5130     0D1A  318E  26D5  318D   	fcall	_Timebase_Struct_Init
  5131                           
  5132                           ;timebase.c: 93: Timebase_Timer_Config();
  5133     0D1D  3187  27DE  318D   	fcall	_Timebase_Timer_Config
  5134     0D20                     l559:
  5135     0D20  0008               	return
  5136     0D21                     __end_of_Timebase_Init:
  5137                           
  5138                           	psect	text11
  5139     07DE                     __ptext11:	
  5140 ;; *************** function _Timebase_Timer_Config *****************
  5141 ;; Defined at:
  5142 ;;		line 72 in file "timebase.c"
  5143 ;; Parameters:    Size  Location     Type
  5144 ;;		None
  5145 ;; Auto vars:     Size  Location     Type
  5146 ;;		None
  5147 ;; Return value:  Size  Location     Type
  5148 ;;                  1    wreg      void 
  5149 ;; Registers used:
  5150 ;;		wreg, status,2, status,0
  5151 ;; Tracked objects:
  5152 ;;		On entry : 0/0
  5153 ;;		On exit  : 0/0
  5154 ;;		Unchanged: 0/0
  5155 ;; Data sizes:     COMMON   BANK0   BANK1   BANK2   BANK3   BANK4   BANK5   BANK6   BANK7   BANK8   BANK9  BANK10  BANK1
      +1  BANK12  BANK13  BANK14  BANK15  BANK16  BANK17  BANK18  BANK19  BANK20  BANK21  BANK22  BANK23  BANK24  BANK25
  5156 ;;      Params:         0       0       0       0       0       0       0       0       0       0       0       0       
      +0       0       0       0       0       0       0       0       0       0       0       0       0       0       0
  5157 ;;      Locals:         0       0       0       0       0       0       0       0       0       0       0       0       
      +0       0       0       0       0       0       0       0       0       0       0       0       0       0       0
  5158 ;;      Temps:          0       1       0       0       0       0       0       0       0       0       0       0       
      +0       0       0       0       0       0       0       0       0       0       0       0       0       0       0
  5159 ;;      Totals:         0       1       0       0       0       0       0       0       0       0       0       0       
      +0       0       0       0       0       0       0       0       0       0       0       0       0       0       0
  5160 ;;Total ram usage:        1 bytes
  5161 ;; Hardware stack levels used: 1
  5162 ;; Hardware stack levels required when called: 4
  5163 ;; This function calls:
  5164 ;;		Nothing
  5165 ;; This function is called by:
  5166 ;;		_Timebase_Init
  5167 ;; This function uses a non-reentrant model
  5168 ;;
  5169                           
  5170     07DE                     _Timebase_Timer_Config:	
  5171                           ;psect for function _Timebase_Timer_Config
  5172                           
  5173     07DE                     l3167:	
  5174                           ;incstack = 0
  5175                           ; Regs used in _Timebase_Timer_Config: [wreg+status,2+status,0]
  5176                           
  5177                           
  5178                           ;timebase.c: 73: T0CON0 =0x00;
  5179     07DE  0020               	movlb	0	; select bank0
  5180     07DF  0197               	clrf	23	;volatile
  5181                           
  5182                           ;timebase.c: 74: T0CON1 =0x00;
  5183     07E0  0198               	clrf	24	;volatile
  5184     07E1                     l3169:
  5185                           
  5186                           ;timebase.c: 75: TMR0H=250;
  5187     07E1  30FA               	movlw	250
  5188     07E2  0096               	movwf	22	;volatile
  5189     07E3                     l3171:
  5190                           
  5191                           ;timebase.c: 76: T0CON1|=(uint8_t)(0x02<<0x05);
  5192     07E3  1718               	bsf	24,6	;volatile
  5193     07E4                     l3173:
  5194                           
  5195                           ;timebase.c: 77: T0CON1|=(uint8_t)(0x07<<0x00);
  5196     07E4  3007               	movlw	7
  5197     07E5  00A0               	movwf	??_Timebase_Timer_Config
  5198     07E6  0820               	movf	??_Timebase_Timer_Config,w
  5199     07E7  0498               	iorwf	24,f	;volatile
  5200     07E8                     l3175:
  5201                           
  5202                           ;timebase.c: 78: T0CON0|=(uint8_t)((5-1)<<0x00);
  5203     07E8  1517               	bsf	23,2	;volatile
  5204     07E9                     l3177:
  5205                           
  5206                           ;timebase.c: 79: T0CON0|=(1<<0x07);
  5207     07E9  1797               	bsf	23,7	;volatile
  5208     07EA                     l3179:
  5209                           
  5210                           ;timebase.c: 80: PIE0 |=(1<<0x05);
  5211     07EA  0021               	movlb	1	; select bank1
  5212     07EB  1690               	bsf	16,5	;volatile
  5213     07EC                     l3181:
  5214                           
  5215                           ;timebase.c: 81: if(!(INTCON & (1<<0x06))){
  5216     07EC  1B0B               	btfsc	11,6	;volatile
  5217     07ED  2FEF               	goto	u2981
  5218     07EE  2FF0               	goto	u2980
  5219     07EF                     u2981:
  5220     07EF  2FF1               	goto	l553
  5221     07F0                     u2980:
  5222     07F0                     l3183:
  5223                           
  5224                           ;timebase.c: 82: INTCON|=(1<<0x06);
  5225     07F0  170B               	bsf	11,6	;volatile
  5226     07F1                     l553:
  5227                           
  5228                           ;timebase.c: 83: };timebase.c: 84: if(!(INTCON & (1<<0x07))){
  5229     07F1  1B8B               	btfsc	11,7	;volatile
  5230     07F2  2FF4               	goto	u2991
  5231     07F3  2FF5               	goto	u2990
  5232     07F4                     u2991:
  5233     07F4  2FF6               	goto	l554
  5234     07F5                     u2990:
  5235     07F5                     l3185:
  5236                           
  5237                           ;timebase.c: 85: INTCON|=(1<<0x07);
  5238     07F5  178B               	bsf	11,7	;volatile
  5239     07F6                     l554:
  5240                           
  5241                           ;timebase.c: 86: };timebase.c: 87: if(!(PIR0 & (1<<0x05))){
  5242     07F6  0020               	movlb	0	; select bank0
  5243     07F7  1A90               	btfsc	16,5	;volatile
  5244     07F8  2FFA               	goto	u3001
  5245     07F9  2FFB               	goto	u3000
  5246     07FA                     u3001:
  5247     07FA  2FFF               	goto	l556
  5248     07FB                     u3000:
  5249     07FB                     l3187:
  5250                           
  5251                           ;timebase.c: 88: PIR0&=~(1<<0x05);
  5252     07FB  30DF               	movlw	223
  5253     07FC  00A0               	movwf	??_Timebase_Timer_Config
  5254     07FD  0820               	movf	??_Timebase_Timer_Config,w
  5255     07FE  0590               	andwf	16,f	;volatile
  5256     07FF                     l556:
  5257     07FF  0008               	return
  5258     0800                     __end_of_Timebase_Timer_Config:
  5259                           
  5260                           	psect	text12
  5261     0ED5                     __ptext12:	
  5262 ;; *************** function _Timebase_Struct_Init *****************
  5263 ;; Defined at:
  5264 ;;		line 62 in file "timebase.c"
  5265 ;; Parameters:    Size  Location     Type
  5266 ;;		None
  5267 ;; Auto vars:     Size  Location     Type
  5268 ;;		None
  5269 ;; Return value:  Size  Location     Type
  5270 ;;                  1    wreg      void 
  5271 ;; Registers used:
  5272 ;;		wreg, status,2
  5273 ;; Tracked objects:
  5274 ;;		On entry : 0/0
  5275 ;;		On exit  : 0/0
  5276 ;;		Unchanged: 0/0
  5277 ;; Data sizes:     COMMON   BANK0   BANK1   BANK2   BANK3   BANK4   BANK5   BANK6   BANK7   BANK8   BANK9  BANK10  BANK1
      +1  BANK12  BANK13  BANK14  BANK15  BANK16  BANK17  BANK18  BANK19  BANK20  BANK21  BANK22  BANK23  BANK24  BANK25
  5278 ;;      Params:         0       0       0       0       0       0       0       0       0       0       0       0       
      +0       0       0       0       0       0       0       0       0       0       0       0       0       0       0
  5279 ;;      Locals:         0       0       0       0       0       0       0       0       0       0       0       0       
      +0       0       0       0       0       0       0       0       0       0       0       0       0       0       0
  5280 ;;      Temps:          0       0       0       0       0       0       0       0       0       0       0       0       
      +0       0       0       0       0       0       0       0       0       0       0       0       0       0       0
  5281 ;;      Totals:         0       0       0       0       0       0       0       0       0       0       0       0       
      +0       0       0       0       0       0       0       0       0       0       0       0       0       0       0
  5282 ;;Total ram usage:        0 bytes
  5283 ;; Hardware stack levels used: 1
  5284 ;; Hardware stack levels required when called: 4
  5285 ;; This function calls:
  5286 ;;		Nothing
  5287 ;; This function is called by:
  5288 ;;		_Timebase_Init
  5289 ;; This function uses a non-reentrant model
  5290 ;;
  5291                           
  5292     0ED5                     _Timebase_Struct_Init:	
  5293                           ;psect for function _Timebase_Struct_Init
  5294                           
  5295     0ED5                     l3157:	
  5296                           ;incstack = 0
  5297                           ; Regs used in _Timebase_Struct_Init: [wreg+status,2]
  5298                           
  5299                           
  5300                           ;timebase.c: 63: Timebase.Status=0;
  5301     0ED5  0021               	movlb	1	; select bank1
  5302     0ED6  01D4               	clrf	_Timebase^(0+128)	;volatile
  5303     0ED7                     l3159:
  5304                           
  5305                           ;timebase.c: 64: Timebase.SubSecondsToSecondsFactor=50;
  5306     0ED7  3000               	movlw	0
  5307     0ED8  00D6               	movwf	((_Timebase+1)^(0+128)+1)	;volatile
  5308     0ED9  3032               	movlw	50
  5309     0EDA  00D5               	movwf	(_Timebase^(0+128)+1)	;volatile
  5310     0EDB                     l3161:
  5311                           
  5312                           ;timebase.c: 65: Timebase.LastTimeSample=0;
  5313     0EDB  3000               	movlw	0
  5314     0EDC  00DA               	movwf	((_Timebase+3)^(0+128)+3)	;volatile
  5315     0EDD  3000               	movlw	0
  5316     0EDE  00D9               	movwf	((_Timebase+2)^(0+128)+3)	;volatile
  5317     0EDF  3000               	movlw	0
  5318     0EE0  00D8               	movwf	((_Timebase+1)^(0+128)+3)	;volatile
  5319     0EE1  3000               	movlw	0
  5320     0EE2  00D7               	movwf	(_Timebase^(0+128)+3)	;volatile
  5321     0EE3                     l3163:
  5322                           
  5323                           ;timebase.c: 66: Timebase.ValueSubSeconds=0;
  5324     0EE3  3000               	movlw	0
  5325     0EE4  00DE               	movwf	((_Timebase+3)^(0+128)+7)	;volatile
  5326     0EE5  3000               	movlw	0
  5327     0EE6  00DD               	movwf	((_Timebase+2)^(0+128)+7)	;volatile
  5328     0EE7  3000               	movlw	0
  5329     0EE8  00DC               	movwf	((_Timebase+1)^(0+128)+7)	;volatile
  5330     0EE9  3000               	movlw	0
  5331     0EEA  00DB               	movwf	(_Timebase^(0+128)+7)	;volatile
  5332     0EEB                     l3165:
  5333                           
  5334                           ;timebase.c: 67: Timebase.ValueSeconds=0;
  5335     0EEB  3000               	movlw	0
  5336     0EEC  00E2               	movwf	((_Timebase+3)^(0+128)+11)	;volatile
  5337     0EED  3000               	movlw	0
  5338     0EEE  00E1               	movwf	((_Timebase+2)^(0+128)+11)	;volatile
  5339     0EEF  3000               	movlw	0
  5340     0EF0  00E0               	movwf	((_Timebase+1)^(0+128)+11)	;volatile
  5341     0EF1  3000               	movlw	0
  5342     0EF2  00DF               	movwf	(_Timebase^(0+128)+11)	;volatile
  5343     0EF3                     l550:
  5344     0EF3  0008               	return
  5345     0EF4                     __end_of_Timebase_Struct_Init:
  5346                           
  5347                           	psect	text13
  5348     0DB8                     __ptext13:	
  5349 ;; *************** function _Timebase_Get_SubSeconds_Value *****************
  5350 ;; Defined at:
  5351 ;;		line 154 in file "timebase.c"
  5352 ;; Parameters:    Size  Location     Type
  5353 ;;		None
  5354 ;; Auto vars:     Size  Location     Type
  5355 ;;		None
  5356 ;; Return value:  Size  Location     Type
  5357 ;;                  4    1[BANK0 ] unsigned long 
  5358 ;; Registers used:
  5359 ;;		wreg, fsr1l, fsr1h, status,2, status,0, pclath, cstack
  5360 ;; Tracked objects:
  5361 ;;		On entry : 0/0
  5362 ;;		On exit  : 0/0
  5363 ;;		Unchanged: 0/0
  5364 ;; Data sizes:     COMMON   BANK0   BANK1   BANK2   BANK3   BANK4   BANK5   BANK6   BANK7   BANK8   BANK9  BANK10  BANK1
      +1  BANK12  BANK13  BANK14  BANK15  BANK16  BANK17  BANK18  BANK19  BANK20  BANK21  BANK22  BANK23  BANK24  BANK25
  5365 ;;      Params:         0       4       0       0       0       0       0       0       0       0       0       0       
      +0       0       0       0       0       0       0       0       0       0       0       0       0       0       0
  5366 ;;      Locals:         0       0       0       0       0       0       0       0       0       0       0       0       
      +0       0       0       0       0       0       0       0       0       0       0       0       0       0       0
  5367 ;;      Temps:          0       0       0       0       0       0       0       0       0       0       0       0       
      +0       0       0       0       0       0       0       0       0       0       0       0       0       0       0
  5368 ;;      Totals:         0       4       0       0       0       0       0       0       0       0       0       0       
      +0       0       0       0       0       0       0       0       0       0       0       0       0       0       0
  5369 ;;Total ram usage:        4 bytes
  5370 ;; Hardware stack levels used: 1
  5371 ;; Hardware stack levels required when called: 6
  5372 ;; This function calls:
  5373 ;;		_Timebase_Add_Token
  5374 ;; This function is called by:
  5375 ;;		_main
  5376 ;; This function uses a non-reentrant model
  5377 ;;
  5378                           
  5379     0DB8                     _Timebase_Get_SubSeconds_Value:	
  5380                           ;psect for function _Timebase_Get_SubSeconds_Value
  5381                           
  5382     0DB8                     l3299:	
  5383                           ;incstack = 0
  5384                           ; Regs used in _Timebase_Get_SubSeconds_Value: [wreg+fsr1l+fsr1h+status,2+status,0+pclat
      +                          h+cstack]
  5385                           
  5386                           
  5387                           ;timebase.c: 155: Timebase_Add_Token();
  5388     0DB8  318D  25DD  318D   	fcall	_Timebase_Add_Token
  5389     0DBB                     l3301:
  5390                           
  5391                           ;timebase.c: 156: return Timebase.ValueSubSeconds;
  5392     0DBB  3007               	movlw	7
  5393     0DBC  3ED4               	addlw	(low (_Timebase| 0))& (0+255)
  5394     0DBD  0086               	movwf	6
  5395     0DBE  0187               	clrf	7
  5396     0DBF  3F40               	moviw [0]fsr1
  5397     0DC0  0020               	movlb	0	; select bank0
  5398     0DC1  00A1               	movwf	?_Timebase_Get_SubSeconds_Value
  5399     0DC2  3F41               	moviw [1]fsr1
  5400     0DC3  00A2               	movwf	?_Timebase_Get_SubSeconds_Value+1
  5401     0DC4  3F42               	moviw [2]fsr1
  5402     0DC5  00A3               	movwf	?_Timebase_Get_SubSeconds_Value+2
  5403     0DC6  3F43               	moviw [3]fsr1
  5404     0DC7  00A4               	movwf	?_Timebase_Get_SubSeconds_Value+3
  5405     0DC8                     l604:
  5406     0DC8  0008               	return
  5407     0DC9                     __end_of_Timebase_Get_SubSeconds_Value:
  5408                           
  5409                           	psect	text14
  5410     0DDD                     __ptext14:	
  5411 ;; *************** function _Timebase_Add_Token *****************
  5412 ;; Defined at:
  5413 ;;		line 105 in file "timebase.c"
  5414 ;; Parameters:    Size  Location     Type
  5415 ;;		None
  5416 ;; Auto vars:     Size  Location     Type
  5417 ;;		None
  5418 ;; Return value:  Size  Location     Type
  5419 ;;                  1    wreg      void 
  5420 ;; Registers used:
  5421 ;;		wreg, status,2, status,0, pclath, cstack
  5422 ;; Tracked objects:
  5423 ;;		On entry : 0/0
  5424 ;;		On exit  : 0/0
  5425 ;;		Unchanged: 0/0
  5426 ;; Data sizes:     COMMON   BANK0   BANK1   BANK2   BANK3   BANK4   BANK5   BANK6   BANK7   BANK8   BANK9  BANK10  BANK1
      +1  BANK12  BANK13  BANK14  BANK15  BANK16  BANK17  BANK18  BANK19  BANK20  BANK21  BANK22  BANK23  BANK24  BANK25
  5427 ;;      Params:         0       0       0       0       0       0       0       0       0       0       0       0       
      +0       0       0       0       0       0       0       0       0       0       0       0       0       0       0
  5428 ;;      Locals:         0       0       0       0       0       0       0       0       0       0       0       0       
      +0       0       0       0       0       0       0       0       0       0       0       0       0       0       0
  5429 ;;      Temps:          0       1       0       0       0       0       0       0       0       0       0       0       
      +0       0       0       0       0       0       0       0       0       0       0       0       0       0       0
  5430 ;;      Totals:         0       1       0       0       0       0       0       0       0       0       0       0       
      +0       0       0       0       0       0       0       0       0       0       0       0       0       0       0
  5431 ;;Total ram usage:        1 bytes
  5432 ;; Hardware stack levels used: 1
  5433 ;; Hardware stack levels required when called: 5
  5434 ;; This function calls:
  5435 ;;		_Timebase_Total_Tokens_Executing
  5436 ;; This function is called by:
  5437 ;;		_Timebase_Get_SubSeconds_Value
  5438 ;;		_Timebase_Get_Seconds_Value
  5439 ;; This function uses a non-reentrant model
  5440 ;;
  5441                           
  5442     0DDD                     _Timebase_Add_Token:	
  5443                           ;psect for function _Timebase_Add_Token
  5444                           
  5445     0DDD                     l3189:	
  5446                           ;incstack = 0
  5447                           ; Regs used in _Timebase_Add_Token: [wreg+status,2+status,0+pclath+cstack]
  5448                           
  5449                           
  5450                           ;timebase.c: 106: Timebase.Status+=1;
  5451     0DDD  3001               	movlw	1
  5452     0DDE  0020               	movlb	0	; select bank0
  5453     0DDF  00A0               	movwf	??_Timebase_Add_Token
  5454     0DE0  0820               	movf	??_Timebase_Add_Token,w
  5455     0DE1  0021               	movlb	1	; select bank1
  5456     0DE2  07D4               	addwf	_Timebase^(0+128),f	;volatile
  5457     0DE3                     l3191:
  5458                           
  5459                           ;timebase.c: 107: if( Timebase_Total_Tokens_Executing() > 63){
  5460     0DE3  318D  250F  318D   	fcall	_Timebase_Total_Tokens_Executing
  5461     0DE6  0020               	movlb	0	; select bank0
  5462     0DE7  00A0               	movwf	??_Timebase_Add_Token
  5463     0DE8  3040               	movlw	64
  5464     0DE9  0220               	subwf	??_Timebase_Add_Token,w
  5465     0DEA  1C03               	skipc
  5466     0DEB  2DED               	goto	u3011
  5467     0DEC  2DEE               	goto	u3010
  5468     0DED                     u3011:
  5469     0DED  2DF3               	goto	l572
  5470     0DEE                     u3010:
  5471     0DEE                     l3193:
  5472                           
  5473                           ;timebase.c: 108: Timebase.Status|=63;
  5474     0DEE  303F               	movlw	63
  5475     0DEF  00A0               	movwf	??_Timebase_Add_Token
  5476     0DF0  0820               	movf	??_Timebase_Add_Token,w
  5477     0DF1  0021               	movlb	1	; select bank1
  5478     0DF2  04D4               	iorwf	_Timebase^(0+128),f	;volatile
  5479     0DF3                     l572:
  5480     0DF3  0008               	return
  5481     0DF4                     __end_of_Timebase_Add_Token:
  5482                           
  5483                           	psect	text15
  5484     0D0F                     __ptext15:	
  5485 ;; *************** function _Timebase_Total_Tokens_Executing *****************
  5486 ;; Defined at:
  5487 ;;		line 101 in file "timebase.c"
  5488 ;; Parameters:    Size  Location     Type
  5489 ;;		None
  5490 ;; Auto vars:     Size  Location     Type
  5491 ;;		None
  5492 ;; Return value:  Size  Location     Type
  5493 ;;                  1    wreg      unsigned char 
  5494 ;; Registers used:
  5495 ;;		wreg, status,2
  5496 ;; Tracked objects:
  5497 ;;		On entry : 0/0
  5498 ;;		On exit  : 0/0
  5499 ;;		Unchanged: 0/0
  5500 ;; Data sizes:     COMMON   BANK0   BANK1   BANK2   BANK3   BANK4   BANK5   BANK6   BANK7   BANK8   BANK9  BANK10  BANK1
      +1  BANK12  BANK13  BANK14  BANK15  BANK16  BANK17  BANK18  BANK19  BANK20  BANK21  BANK22  BANK23  BANK24  BANK25
  5501 ;;      Params:         0       0       0       0       0       0       0       0       0       0       0       0       
      +0       0       0       0       0       0       0       0       0       0       0       0       0       0       0
  5502 ;;      Locals:         0       0       0       0       0       0       0       0       0       0       0       0       
      +0       0       0       0       0       0       0       0       0       0       0       0       0       0       0
  5503 ;;      Temps:          0       0       0       0       0       0       0       0       0       0       0       0       
      +0       0       0       0       0       0       0       0       0       0       0       0       0       0       0
  5504 ;;      Totals:         0       0       0       0       0       0       0       0       0       0       0       0       
      +0       0       0       0       0       0       0       0       0       0       0       0       0       0       0
  5505 ;;Total ram usage:        0 bytes
  5506 ;; Hardware stack levels used: 1
  5507 ;; Hardware stack levels required when called: 4
  5508 ;; This function calls:
  5509 ;;		Nothing
  5510 ;; This function is called by:
  5511 ;;		_Timebase_Add_Token
  5512 ;;		_Timebase_Remove_Token
  5513 ;;		_Timebase_Safely_Reset_Timer
  5514 ;; This function uses a non-reentrant model
  5515 ;;
  5516                           
  5517     0D0F                     _Timebase_Total_Tokens_Executing:	
  5518                           ;psect for function _Timebase_Total_Tokens_Executing
  5519                           
  5520     0D0F                     l2871:	
  5521                           ;incstack = 0
  5522                           ; Regs used in _Timebase_Total_Tokens_Executing: [wreg+status,2]
  5523                           
  5524                           
  5525                           ;timebase.c: 102: return (Timebase.Status & 0x3F);
  5526     0D0F  0021               	movlb	1	; select bank1
  5527     0D10  0854               	movf	_Timebase^(0+128),w	;volatile
  5528     0D11  393F               	andlw	63
  5529     0D12                     l568:
  5530     0D12  0008               	return
  5531     0D13                     __end_of_Timebase_Total_Tokens_Executing:
  5532                           
  5533                           	psect	text16
  5534     0E0C                     __ptext16:	
  5535 ;; *************** function _CapTouch_Scan_Sensors *****************
  5536 ;; Defined at:
  5537 ;;		line 278 in file "captouch.c"
  5538 ;; Parameters:    Size  Location     Type
  5539 ;;  refernce_tim    4   63[BANK0 ] unsigned long 
  5540 ;; Auto vars:     Size  Location     Type
  5541 ;;  channel         1   68[BANK0 ] unsigned char 
  5542 ;; Return value:  Size  Location     Type
  5543 ;;                  1    wreg      void 
  5544 ;; Registers used:
  5545 ;;		wreg, fsr1l, fsr1h, status,2, status,0, pclath, cstack
  5546 ;; Tracked objects:
  5547 ;;		On entry : 0/0
  5548 ;;		On exit  : 0/0
  5549 ;;		Unchanged: 0/0
  5550 ;; Data sizes:     COMMON   BANK0   BANK1   BANK2   BANK3   BANK4   BANK5   BANK6   BANK7   BANK8   BANK9  BANK10  BANK1
      +1  BANK12  BANK13  BANK14  BANK15  BANK16  BANK17  BANK18  BANK19  BANK20  BANK21  BANK22  BANK23  BANK24  BANK25
  5551 ;;      Params:         0       4       0       0       0       0       0       0       0       0       0       0       
      +0       0       0       0       0       0       0       0       0       0       0       0       0       0       0
  5552 ;;      Locals:         0       1       0       0       0       0       0       0       0       0       0       0       
      +0       0       0       0       0       0       0       0       0       0       0       0       0       0       0
  5553 ;;      Temps:          0       1       0       0       0       0       0       0       0       0       0       0       
      +0       0       0       0       0       0       0       0       0       0       0       0       0       0       0
  5554 ;;      Totals:         0       6       0       0       0       0       0       0       0       0       0       0       
      +0       0       0       0       0       0       0       0       0       0       0       0       0       0       0
  5555 ;;Total ram usage:        6 bytes
  5556 ;; Hardware stack levels used: 1
  5557 ;; Hardware stack levels required when called: 10
  5558 ;; This function calls:
  5559 ;;		_CapTouch_Check_Touch_Duration
  5560 ;; This function is called by:
  5561 ;;		_main
  5562 ;; This function uses a non-reentrant model
  5563 ;;
  5564                           
  5565     0E0C                     _CapTouch_Scan_Sensors:	
  5566                           ;psect for function _CapTouch_Scan_Sensors
  5567                           
  5568     0E0C                     l3305:	
  5569                           ;incstack = 0
  5570                           ; Regs used in _CapTouch_Scan_Sensors: [wreg+fsr1l+fsr1h+status,2+status,0+pclath+cstack
      +                          ]
  5571                           
  5572                           
  5573                           ;captouch.c: 279: for(uint8_t channel=0;channel<2;channel++){
  5574     0E0C  0020               	movlb	0	; select bank0
  5575     0E0D  01E4               	clrf	CapTouch_Scan_Sensors@channel
  5576     0E0E                     l3311:
  5577                           
  5578                           ;captouch.c: 280: CapTouch_Check_Touch_Duration(channel, refernce_time);
  5579     0E0E  0862               	movf	CapTouch_Scan_Sensors@refernce_time+3,w
  5580     0E0F  00D4               	movwf	CapTouch_Check_Touch_Duration@refernce_time+3
  5581     0E10  0861               	movf	CapTouch_Scan_Sensors@refernce_time+2,w
  5582     0E11  00D3               	movwf	CapTouch_Check_Touch_Duration@refernce_time+2
  5583     0E12  0860               	movf	CapTouch_Scan_Sensors@refernce_time+1,w
  5584     0E13  00D2               	movwf	CapTouch_Check_Touch_Duration@refernce_time+1
  5585     0E14  085F               	movf	CapTouch_Scan_Sensors@refernce_time,w
  5586     0E15  00D1               	movwf	CapTouch_Check_Touch_Duration@refernce_time
  5587     0E16  0864               	movf	CapTouch_Scan_Sensors@channel,w
  5588     0E17  3181  2162  318E   	fcall	_CapTouch_Check_Touch_Duration
  5589     0E1A                     l3313:
  5590     0E1A  3001               	movlw	1
  5591     0E1B  0020               	movlb	0	; select bank0
  5592     0E1C  00E3               	movwf	??_CapTouch_Scan_Sensors
  5593     0E1D  0863               	movf	??_CapTouch_Scan_Sensors,w
  5594     0E1E  07E4               	addwf	CapTouch_Scan_Sensors@channel,f
  5595     0E1F                     l3315:
  5596     0E1F  3002               	movlw	2
  5597     0E20  0264               	subwf	CapTouch_Scan_Sensors@channel,w
  5598     0E21  1C03               	skipc
  5599     0E22  2E24               	goto	u3101
  5600     0E23  2E25               	goto	u3100
  5601     0E24                     u3101:
  5602     0E24  2E0E               	goto	l3311
  5603     0E25                     u3100:
  5604     0E25                     l220:
  5605     0E25  0008               	return
  5606     0E26                     __end_of_CapTouch_Scan_Sensors:
  5607                           
  5608                           	psect	text17
  5609     0162                     __ptext17:	
  5610 ;; *************** function _CapTouch_Check_Touch_Duration *****************
  5611 ;; Defined at:
  5612 ;;		line 254 in file "captouch.c"
  5613 ;; Parameters:    Size  Location     Type
  5614 ;;  current_chan    1    wreg     unsigned char 
  5615 ;;  refernce_tim    4   49[BANK0 ] unsigned long 
  5616 ;; Auto vars:     Size  Location     Type
  5617 ;;  current_chan    1   62[BANK0 ] unsigned char 
  5618 ;;  duration        4   58[BANK0 ] unsigned long 
  5619 ;; Return value:  Size  Location     Type
  5620 ;;                  1    wreg      void 
  5621 ;; Registers used:
  5622 ;;		wreg, fsr1l, fsr1h, status,2, status,0, pclath, cstack
  5623 ;; Tracked objects:
  5624 ;;		On entry : 0/0
  5625 ;;		On exit  : 0/0
  5626 ;;		Unchanged: 0/0
  5627 ;; Data sizes:     COMMON   BANK0   BANK1   BANK2   BANK3   BANK4   BANK5   BANK6   BANK7   BANK8   BANK9  BANK10  BANK1
      +1  BANK12  BANK13  BANK14  BANK15  BANK16  BANK17  BANK18  BANK19  BANK20  BANK21  BANK22  BANK23  BANK24  BANK25
  5628 ;;      Params:         0       4       0       0       0       0       0       0       0       0       0       0       
      +0       0       0       0       0       0       0       0       0       0       0       0       0       0       0
  5629 ;;      Locals:         0       5       0       0       0       0       0       0       0       0       0       0       
      +0       0       0       0       0       0       0       0       0       0       0       0       0       0       0
  5630 ;;      Temps:          0       5       0       0       0       0       0       0       0       0       0       0       
      +0       0       0       0       0       0       0       0       0       0       0       0       0       0       0
  5631 ;;      Totals:         0      14       0       0       0       0       0       0       0       0       0       0       
      +0       0       0       0       0       0       0       0       0       0       0       0       0       0       0
  5632 ;;Total ram usage:       14 bytes
  5633 ;; Hardware stack levels used: 1
  5634 ;; Hardware stack levels required when called: 9
  5635 ;; This function calls:
  5636 ;;		_CapTouch_Check_Trigger
  5637 ;; This function is called by:
  5638 ;;		_CapTouch_Scan_Sensors
  5639 ;; This function uses a non-reentrant model
  5640 ;;
  5641                           
  5642     0162                     _CapTouch_Check_Touch_Duration:	
  5643                           ;psect for function _CapTouch_Check_Touch_Duration
  5644                           
  5645                           
  5646                           ;incstack = 0
  5647                           ; Regs used in _CapTouch_Check_Touch_Duration: [wreg+fsr1l+fsr1h+status,2+status,0+pclat
      +                          h+cstack]
  5648                           ;CapTouch_Check_Touch_Duration@current_channel stored from wreg
  5649     0162  0020               	movlb	0	; select bank0
  5650     0163  00DE               	movwf	CapTouch_Check_Touch_Duration@current_channel
  5651     0164                     l3051:
  5652     0164                     l3053:
  5653                           
  5654                           ;captouch.c: 256: CapTouch_Check_Trigger(current_channel);
  5655     0164  085E               	movf	CapTouch_Check_Touch_Duration@current_channel,w
  5656     0165  3185  25C7  3181   	fcall	_CapTouch_Check_Trigger
  5657     0168                     l3055:
  5658                           
  5659                           ;captouch.c: 257: if(CapTouch.TriggerMethod[current_channel]==0x01){
  5660     0168  0020               	movlb	0	; select bank0
  5661     0169  085E               	movf	CapTouch_Check_Touch_Duration@current_channel,w
  5662     016A  3E37               	addlw	(low ((_CapTouch| (0+256)+23)))& (0+255)
  5663     016B  0086               	movwf	6
  5664     016C  3001               	movlw	1	; select bank2/3
  5665     016D  0087               	movwf	7
  5666     016E  0301               	decf	1,w
  5667     016F  1D03               	btfss	3,2
  5668     0170  2972               	goto	u2681
  5669     0171  2973               	goto	u2680
  5670     0172                     u2681:
  5671     0172  2995               	goto	l3061
  5672     0173                     u2680:
  5673     0173                     l3057:
  5674                           
  5675                           ;captouch.c: 258: CapTouch.UsingReferenceTimer|=(1<<current_channel);
  5676     0173  3001               	movlw	1
  5677     0174  00D5               	movwf	??_CapTouch_Check_Touch_Duration
  5678     0175  0A5E               	incf	CapTouch_Check_Touch_Duration@current_channel,w
  5679     0176  2978               	goto	u2694
  5680     0177                     u2695:
  5681     0177  35D5               	lslf	??_CapTouch_Check_Touch_Duration,f
  5682     0178                     u2694:
  5683     0178  0B89               	decfsz	9,f
  5684     0179  2977               	goto	u2695
  5685     017A  0855               	movf	??_CapTouch_Check_Touch_Duration,w
  5686     017B  00D6               	movwf	??_CapTouch_Check_Touch_Duration+1
  5687     017C  0856               	movf	??_CapTouch_Check_Touch_Duration+1,w
  5688     017D  0022               	movlb	2	; select bank2
  5689     017E  04CD               	iorwf	(_CapTouch^(0+256)+45),f
  5690     017F                     l3059:
  5691                           
  5692                           ;captouch.c: 259: CapTouch.TouchDurationTemp[current_channel]=refernce_time;
  5693     017F  0020               	movlb	0	; select bank0
  5694     0180  085E               	movf	CapTouch_Check_Touch_Duration@current_channel,w
  5695     0181  00D5               	movwf	??_CapTouch_Check_Touch_Duration
  5696     0182  3001               	movlw	1
  5697     0183                     u2705:
  5698     0183  35D5               	lslf	??_CapTouch_Check_Touch_Duration,f
  5699     0184  3EFF               	addlw	-1
  5700     0185  1D03               	skipz
  5701     0186  2983               	goto	u2705
  5702     0187  3555               	lslf	??_CapTouch_Check_Touch_Duration,w
  5703     0188  3E43               	addlw	(low ((_CapTouch| (0+256)+35)))& (0+255)
  5704     0189  0086               	movwf	6
  5705     018A  3001               	movlw	1	; select bank2/3
  5706     018B  0087               	movwf	7
  5707     018C  0851               	movf	CapTouch_Check_Touch_Duration@refernce_time,w
  5708     018D  3FC0               	movwi [0]fsr1
  5709     018E  0852               	movf	CapTouch_Check_Touch_Duration@refernce_time+1,w
  5710     018F  3FC1               	movwi [1]fsr1
  5711     0190  0853               	movf	CapTouch_Check_Touch_Duration@refernce_time+2,w
  5712     0191  3FC2               	movwi [2]fsr1
  5713     0192  0854               	movf	CapTouch_Check_Touch_Duration@refernce_time+3,w
  5714     0193  3FC3               	movwi [3]fsr1
  5715                           
  5716                           ;captouch.c: 260: }else if(CapTouch.TriggerMethod[current_channel]==0x04 || CapTouch.Tri
      +                          ggerMethod[current_channel]==0x02){
  5717     0194  2A3C               	goto	l215
  5718     0195                     l3061:
  5719     0195  085E               	movf	CapTouch_Check_Touch_Duration@current_channel,w
  5720     0196  3E37               	addlw	(low ((_CapTouch| (0+256)+23)))& (0+255)
  5721     0197  0086               	movwf	6
  5722     0198  3001               	movlw	1	; select bank2/3
  5723     0199  0087               	movwf	7
  5724     019A  3004               	movlw	4
  5725     019B  0601               	xorwf	1,w
  5726     019C  1903               	btfsc	3,2
  5727     019D  299F               	goto	u2711
  5728     019E  29A0               	goto	u2710
  5729     019F                     u2711:
  5730     019F  29AB               	goto	l3065
  5731     01A0                     u2710:
  5732     01A0                     l3063:
  5733     01A0  085E               	movf	CapTouch_Check_Touch_Duration@current_channel,w
  5734     01A1  3E37               	addlw	(low ((_CapTouch| (0+256)+23)))& (0+255)
  5735     01A2  0086               	movwf	6
  5736     01A3  3001               	movlw	1	; select bank2/3
  5737     01A4  0087               	movwf	7
  5738     01A5  3002               	movlw	2
  5739     01A6  0601               	xorwf	1,w
  5740     01A7  1D03               	btfss	3,2
  5741     01A8  29AA               	goto	u2721
  5742     01A9  29AB               	goto	u2720
  5743     01AA                     u2721:
  5744     01AA  2A18               	goto	l3077
  5745     01AB                     u2720:
  5746     01AB                     l3065:
  5747                           
  5748                           ;captouch.c: 261: duration=refernce_time;
  5749     01AB  0854               	movf	CapTouch_Check_Touch_Duration@refernce_time+3,w
  5750     01AC  00DD               	movwf	CapTouch_Check_Touch_Duration@duration+3
  5751     01AD  0853               	movf	CapTouch_Check_Touch_Duration@refernce_time+2,w
  5752     01AE  00DC               	movwf	CapTouch_Check_Touch_Duration@duration+2
  5753     01AF  0852               	movf	CapTouch_Check_Touch_Duration@refernce_time+1,w
  5754     01B0  00DB               	movwf	CapTouch_Check_Touch_Duration@duration+1
  5755     01B1  0851               	movf	CapTouch_Check_Touch_Duration@refernce_time,w
  5756     01B2  00DA               	movwf	CapTouch_Check_Touch_Duration@duration
  5757     01B3                     l3067:
  5758                           
  5759                           ;captouch.c: 262: duration-=CapTouch.TouchDurationTemp[current_channel];
  5760     01B3  085E               	movf	CapTouch_Check_Touch_Duration@current_channel,w
  5761     01B4  00D5               	movwf	??_CapTouch_Check_Touch_Duration
  5762     01B5  3001               	movlw	1
  5763     01B6                     u2735:
  5764     01B6  35D5               	lslf	??_CapTouch_Check_Touch_Duration,f
  5765     01B7  3EFF               	addlw	-1
  5766     01B8  1D03               	skipz
  5767     01B9  29B6               	goto	u2735
  5768     01BA  3555               	lslf	??_CapTouch_Check_Touch_Duration,w
  5769     01BB  3E43               	addlw	(low ((_CapTouch| (0+256)+35)))& (0+255)
  5770     01BC  0086               	movwf	6
  5771     01BD  3001               	movlw	1	; select bank2/3
  5772     01BE  0087               	movwf	7
  5773     01BF  3F40               	moviw [0]fsr1
  5774     01C0  00D6               	movwf	??_CapTouch_Check_Touch_Duration+1
  5775     01C1  3F41               	moviw [1]fsr1
  5776     01C2  00D7               	movwf	??_CapTouch_Check_Touch_Duration+2
  5777     01C3  3F42               	moviw [2]fsr1
  5778     01C4  00D8               	movwf	??_CapTouch_Check_Touch_Duration+3
  5779     01C5  3F43               	moviw [3]fsr1
  5780     01C6  00D9               	movwf	??_CapTouch_Check_Touch_Duration+4
  5781     01C7  0856               	movf	??_CapTouch_Check_Touch_Duration+1,w
  5782     01C8  02DA               	subwf	CapTouch_Check_Touch_Duration@duration,f
  5783     01C9  0857               	movf	??_CapTouch_Check_Touch_Duration+2,w
  5784     01CA  3BDB               	subwfb	CapTouch_Check_Touch_Duration@duration+1,f
  5785     01CB  0858               	movf	??_CapTouch_Check_Touch_Duration+3,w
  5786     01CC  3BDC               	subwfb	CapTouch_Check_Touch_Duration@duration+2,f
  5787     01CD  0859               	movf	??_CapTouch_Check_Touch_Duration+4,w
  5788     01CE  3BDD               	subwfb	CapTouch_Check_Touch_Duration@duration+3,f
  5789     01CF                     l3069:
  5790                           
  5791                           ;captouch.c: 263: if(duration>0){
  5792     01CF  085D               	movf	CapTouch_Check_Touch_Duration@duration+3,w
  5793     01D0  045C               	iorwf	CapTouch_Check_Touch_Duration@duration+2,w
  5794     01D1  045B               	iorwf	CapTouch_Check_Touch_Duration@duration+1,w
  5795     01D2  045A               	iorwf	CapTouch_Check_Touch_Duration@duration,w
  5796     01D3  1903               	skipnz
  5797     01D4  29D6               	goto	u2741
  5798     01D5  29D7               	goto	u2740
  5799     01D6                     u2741:
  5800     01D6  29EB               	goto	l212
  5801     01D7                     u2740:
  5802     01D7                     l3071:
  5803                           
  5804                           ;captouch.c: 264: CapTouch.TouchDuration[current_channel]=duration;
  5805     01D7  085E               	movf	CapTouch_Check_Touch_Duration@current_channel,w
  5806     01D8  00D5               	movwf	??_CapTouch_Check_Touch_Duration
  5807     01D9  3001               	movlw	1
  5808     01DA                     u2755:
  5809     01DA  35D5               	lslf	??_CapTouch_Check_Touch_Duration,f
  5810     01DB  3EFF               	addlw	-1
  5811     01DC  1D03               	skipz
  5812     01DD  29DA               	goto	u2755
  5813     01DE  3555               	lslf	??_CapTouch_Check_Touch_Duration,w
  5814     01DF  3E3B               	addlw	(low ((_CapTouch| (0+256)+27)))& (0+255)
  5815     01E0  0086               	movwf	6
  5816     01E1  3001               	movlw	1	; select bank2/3
  5817     01E2  0087               	movwf	7
  5818     01E3  085A               	movf	CapTouch_Check_Touch_Duration@duration,w
  5819     01E4  3FC0               	movwi [0]fsr1
  5820     01E5  085B               	movf	CapTouch_Check_Touch_Duration@duration+1,w
  5821     01E6  3FC1               	movwi [1]fsr1
  5822     01E7  085C               	movf	CapTouch_Check_Touch_Duration@duration+2,w
  5823     01E8  3FC2               	movwi [2]fsr1
  5824     01E9  085D               	movf	CapTouch_Check_Touch_Duration@duration+3,w
  5825     01EA  3FC3               	movwi [3]fsr1
  5826     01EB                     l212:
  5827                           
  5828                           ;captouch.c: 265: };captouch.c: 266: if(CapTouch.TriggerMethod[current_channel]==0x04){
  5829     01EB  085E               	movf	CapTouch_Check_Touch_Duration@current_channel,w
  5830     01EC  3E37               	addlw	(low ((_CapTouch| (0+256)+23)))& (0+255)
  5831     01ED  0086               	movwf	6
  5832     01EE  3001               	movlw	1	; select bank2/3
  5833     01EF  0087               	movwf	7
  5834     01F0  3004               	movlw	4
  5835     01F1  0601               	xorwf	1,w
  5836     01F2  1D03               	btfss	3,2
  5837     01F3  29F5               	goto	u2761
  5838     01F4  29F6               	goto	u2760
  5839     01F5                     u2761:
  5840     01F5  2A3C               	goto	l215
  5841     01F6                     u2760:
  5842     01F6                     l3073:
  5843                           
  5844                           ;captouch.c: 267: CapTouch.TouchDurationTemp[current_channel]=refernce_time;
  5845     01F6  085E               	movf	CapTouch_Check_Touch_Duration@current_channel,w
  5846     01F7  00D5               	movwf	??_CapTouch_Check_Touch_Duration
  5847     01F8  3001               	movlw	1
  5848     01F9                     u2775:
  5849     01F9  35D5               	lslf	??_CapTouch_Check_Touch_Duration,f
  5850     01FA  3EFF               	addlw	-1
  5851     01FB  1D03               	skipz
  5852     01FC  29F9               	goto	u2775
  5853     01FD  3555               	lslf	??_CapTouch_Check_Touch_Duration,w
  5854     01FE  3E43               	addlw	(low ((_CapTouch| (0+256)+35)))& (0+255)
  5855     01FF  0086               	movwf	6
  5856     0200  3001               	movlw	1	; select bank2/3
  5857     0201  0087               	movwf	7
  5858     0202  0851               	movf	CapTouch_Check_Touch_Duration@refernce_time,w
  5859     0203  3FC0               	movwi [0]fsr1
  5860     0204  0852               	movf	CapTouch_Check_Touch_Duration@refernce_time+1,w
  5861     0205  3FC1               	movwi [1]fsr1
  5862     0206  0853               	movf	CapTouch_Check_Touch_Duration@refernce_time+2,w
  5863     0207  3FC2               	movwi [2]fsr1
  5864     0208  0854               	movf	CapTouch_Check_Touch_Duration@refernce_time+3,w
  5865     0209  3FC3               	movwi [3]fsr1
  5866     020A                     l3075:
  5867                           
  5868                           ;captouch.c: 268: CapTouch.UsingReferenceTimer&=~(1<<current_channel);
  5869     020A  3001               	movlw	1
  5870     020B  00D5               	movwf	??_CapTouch_Check_Touch_Duration
  5871     020C  0A5E               	incf	CapTouch_Check_Touch_Duration@current_channel,w
  5872     020D  2A0F               	goto	u2784
  5873     020E                     u2785:
  5874     020E  35D5               	lslf	??_CapTouch_Check_Touch_Duration,f
  5875     020F                     u2784:
  5876     020F  0B89               	decfsz	9,f
  5877     0210  2A0E               	goto	u2785
  5878     0211  0855               	movf	??_CapTouch_Check_Touch_Duration,w
  5879     0212  3AFF               	xorlw	255
  5880     0213  00D6               	movwf	??_CapTouch_Check_Touch_Duration+1
  5881     0214  0856               	movf	??_CapTouch_Check_Touch_Duration+1,w
  5882     0215  0022               	movlb	2	; select bank2
  5883     0216  05CD               	andwf	(_CapTouch^(0+256)+45),f
  5884     0217  2A3C               	goto	l215
  5885     0218                     l3077:
  5886                           
  5887                           ;captouch.c: 271: else{;captouch.c: 272: CapTouch.TouchDuration[current_channel]=0;
  5888     0218  085E               	movf	CapTouch_Check_Touch_Duration@current_channel,w
  5889     0219  00D5               	movwf	??_CapTouch_Check_Touch_Duration
  5890     021A  3001               	movlw	1
  5891     021B                     u2795:
  5892     021B  35D5               	lslf	??_CapTouch_Check_Touch_Duration,f
  5893     021C  3EFF               	addlw	-1
  5894     021D  1D03               	skipz
  5895     021E  2A1B               	goto	u2795
  5896     021F  3555               	lslf	??_CapTouch_Check_Touch_Duration,w
  5897     0220  3E3B               	addlw	(low ((_CapTouch| (0+256)+27)))& (0+255)
  5898     0221  0086               	movwf	6
  5899     0222  3001               	movlw	1	; select bank2/3
  5900     0223  0087               	movwf	7
  5901     0224  3000               	movlw	0
  5902     0225  3FC0               	movwi [0]fsr1
  5903     0226  3000               	movlw	0
  5904     0227  3FC1               	movwi [1]fsr1
  5905     0228  3FC2               	movwi [2]fsr1
  5906     0229  3FC3               	movwi [3]fsr1
  5907                           
  5908                           ;captouch.c: 273: CapTouch.TouchDurationTemp[current_channel]=0;
  5909     022A  085E               	movf	CapTouch_Check_Touch_Duration@current_channel,w
  5910     022B  00D5               	movwf	??_CapTouch_Check_Touch_Duration
  5911     022C  3001               	movlw	1
  5912     022D                     u2805:
  5913     022D  35D5               	lslf	??_CapTouch_Check_Touch_Duration,f
  5914     022E  3EFF               	addlw	-1
  5915     022F  1D03               	skipz
  5916     0230  2A2D               	goto	u2805
  5917     0231  3555               	lslf	??_CapTouch_Check_Touch_Duration,w
  5918     0232  3E43               	addlw	(low ((_CapTouch| (0+256)+35)))& (0+255)
  5919     0233  0086               	movwf	6
  5920     0234  3001               	movlw	1	; select bank2/3
  5921     0235  0087               	movwf	7
  5922     0236  3000               	movlw	0
  5923     0237  3FC0               	movwi [0]fsr1
  5924     0238  3000               	movlw	0
  5925     0239  3FC1               	movwi [1]fsr1
  5926     023A  3FC2               	movwi [2]fsr1
  5927     023B  3FC3               	movwi [3]fsr1
  5928     023C                     l215:
  5929     023C  0008               	return
  5930     023D                     __end_of_CapTouch_Check_Touch_Duration:
  5931                           
  5932                           	psect	text18
  5933     05C7                     __ptext18:	
  5934 ;; *************** function _CapTouch_Check_Trigger *****************
  5935 ;; Defined at:
  5936 ;;		line 236 in file "captouch.c"
  5937 ;; Parameters:    Size  Location     Type
  5938 ;;  current_chan    1    wreg     unsigned char 
  5939 ;; Auto vars:     Size  Location     Type
  5940 ;;  current_chan    1   48[BANK0 ] unsigned char 
  5941 ;;  current_stat    1   47[BANK0 ] unsigned char 
  5942 ;; Return value:  Size  Location     Type
  5943 ;;                  1    wreg      void 
  5944 ;; Registers used:
  5945 ;;		wreg, fsr1l, fsr1h, status,2, status,0, pclath, cstack
  5946 ;; Tracked objects:
  5947 ;;		On entry : 0/0
  5948 ;;		On exit  : 0/0
  5949 ;;		Unchanged: 0/0
  5950 ;; Data sizes:     COMMON   BANK0   BANK1   BANK2   BANK3   BANK4   BANK5   BANK6   BANK7   BANK8   BANK9  BANK10  BANK1
      +1  BANK12  BANK13  BANK14  BANK15  BANK16  BANK17  BANK18  BANK19  BANK20  BANK21  BANK22  BANK23  BANK24  BANK25
  5951 ;;      Params:         0       0       0       0       0       0       0       0       0       0       0       0       
      +0       0       0       0       0       0       0       0       0       0       0       0       0       0       0
  5952 ;;      Locals:         0       2       0       0       0       0       0       0       0       0       0       0       
      +0       0       0       0       0       0       0       0       0       0       0       0       0       0       0
  5953 ;;      Temps:          0       0       0       0       0       0       0       0       0       0       0       0       
      +0       0       0       0       0       0       0       0       0       0       0       0       0       0       0
  5954 ;;      Totals:         0       2       0       0       0       0       0       0       0       0       0       0       
      +0       0       0       0       0       0       0       0       0       0       0       0       0       0       0
  5955 ;;Total ram usage:        2 bytes
  5956 ;; Hardware stack levels used: 1
  5957 ;; Hardware stack levels required when called: 8
  5958 ;; This function calls:
  5959 ;;		_CapTouch_Response
  5960 ;; This function is called by:
  5961 ;;		_CapTouch_Check_Touch_Duration
  5962 ;; This function uses a non-reentrant model
  5963 ;;
  5964                           
  5965     05C7                     _CapTouch_Check_Trigger:	
  5966                           ;psect for function _CapTouch_Check_Trigger
  5967                           
  5968                           
  5969                           ;incstack = 0
  5970                           ; Regs used in _CapTouch_Check_Trigger: [wreg+fsr1l+fsr1h+status,2+status,0+pclath+cstac
      +                          k]
  5971                           ;CapTouch_Check_Trigger@current_channel stored from wreg
  5972     05C7  0020               	movlb	0	; select bank0
  5973     05C8  00D0               	movwf	CapTouch_Check_Trigger@current_channel
  5974     05C9                     l2837:
  5975     05C9                     l2839:
  5976                           
  5977                           ;captouch.c: 238: CapTouch_Response(current_channel);
  5978     05C9  0850               	movf	CapTouch_Check_Trigger@current_channel,w
  5979     05CA  318F  27C8  3185   	fcall	_CapTouch_Response
  5980     05CD                     l2841:
  5981                           
  5982                           ;captouch.c: 239: current_state=CapTouch.Result[current_channel];
  5983     05CD  0020               	movlb	0	; select bank0
  5984     05CE  0850               	movf	CapTouch_Check_Trigger@current_channel,w
  5985     05CF  3E21               	addlw	(low ((_CapTouch| (0+256)+1)))& (0+255)
  5986     05D0  0086               	movwf	6
  5987     05D1  3001               	movlw	1	; select bank2/3
  5988     05D2  0087               	movwf	7
  5989     05D3  0801               	movf	1,w
  5990     05D4  00CF               	movwf	CapTouch_Check_Trigger@current_state
  5991     05D5                     l2843:
  5992                           
  5993                           ;captouch.c: 240: if((CapTouch.LastTouchState[current_channel]==0) && (current_state==1)
      +                          ){
  5994     05D5  0850               	movf	CapTouch_Check_Trigger@current_channel,w
  5995     05D6  3E39               	addlw	(low ((_CapTouch| (0+256)+25)))& (0+255)
  5996     05D7  0086               	movwf	6
  5997     05D8  3001               	movlw	1	; select bank2/3
  5998     05D9  0087               	movwf	7
  5999     05DA  0801               	movf	1,w
  6000     05DB  1D03               	btfss	3,2
  6001     05DC  2DDE               	goto	u2241
  6002     05DD  2DDF               	goto	u2240
  6003     05DE                     u2241:
  6004     05DE  2DF2               	goto	l2849
  6005     05DF                     u2240:
  6006     05DF                     l2845:
  6007     05DF  034F               	decf	CapTouch_Check_Trigger@current_state,w
  6008     05E0  1D03               	btfss	3,2
  6009     05E1  2DE3               	goto	u2251
  6010     05E2  2DE4               	goto	u2250
  6011     05E3                     u2251:
  6012     05E3  2DF2               	goto	l2849
  6013     05E4                     u2250:
  6014     05E4                     l2847:
  6015                           
  6016                           ;captouch.c: 241: CapTouch.LongTouchFlag[current_channel]=0;
  6017     05E4  0850               	movf	CapTouch_Check_Trigger@current_channel,w
  6018     05E5  3E4B               	addlw	(low ((_CapTouch| (0+256)+43)))& (0+255)
  6019     05E6  0086               	movwf	6
  6020     05E7  3001               	movlw	1	; select bank2/3
  6021     05E8  0087               	movwf	7
  6022     05E9  0181               	clrf	1
  6023                           
  6024                           ;captouch.c: 242: CapTouch.TriggerMethod[current_channel]=0x01;
  6025     05EA  0850               	movf	CapTouch_Check_Trigger@current_channel,w
  6026     05EB  3E37               	addlw	(low ((_CapTouch| (0+256)+23)))& (0+255)
  6027     05EC  0086               	movwf	6
  6028     05ED  3001               	movlw	1	; select bank2/3
  6029     05EE  0087               	movwf	7
  6030     05EF  0181               	clrf	1
  6031     05F0  0A81               	incf	1,f
  6032                           
  6033                           ;captouch.c: 243: }else if((CapTouch.LastTouchState[current_channel]==1) && (current_sta
      +                          te==0)){
  6034     05F1  2E26               	goto	l199
  6035     05F2                     l2849:
  6036     05F2  0850               	movf	CapTouch_Check_Trigger@current_channel,w
  6037     05F3  3E39               	addlw	(low ((_CapTouch| (0+256)+25)))& (0+255)
  6038     05F4  0086               	movwf	6
  6039     05F5  3001               	movlw	1	; select bank2/3
  6040     05F6  0087               	movwf	7
  6041     05F7  0301               	decf	1,w
  6042     05F8  1D03               	btfss	3,2
  6043     05F9  2DFB               	goto	u2261
  6044     05FA  2DFC               	goto	u2260
  6045     05FB                     u2261:
  6046     05FB  2E09               	goto	l2855
  6047     05FC                     u2260:
  6048     05FC                     l2851:
  6049     05FC  084F               	movf	CapTouch_Check_Trigger@current_state,w
  6050     05FD  1D03               	btfss	3,2
  6051     05FE  2E00               	goto	u2271
  6052     05FF  2E01               	goto	u2270
  6053     0600                     u2271:
  6054     0600  2E09               	goto	l2855
  6055     0601                     u2270:
  6056     0601                     l2853:
  6057                           
  6058                           ;captouch.c: 244: CapTouch.TriggerMethod[current_channel]=0x04;
  6059     0601  0850               	movf	CapTouch_Check_Trigger@current_channel,w
  6060     0602  3E37               	addlw	(low ((_CapTouch| (0+256)+23)))& (0+255)
  6061     0603  0086               	movwf	6
  6062     0604  3001               	movlw	1	; select bank2/3
  6063     0605  0087               	movwf	7
  6064     0606  3004               	movlw	4
  6065     0607  0081               	movwf	1
  6066                           
  6067                           ;captouch.c: 245: }else if((CapTouch.LastTouchState[current_channel]==1) && (current_sta
      +                          te==1)){
  6068     0608  2E26               	goto	l199
  6069     0609                     l2855:
  6070     0609  0850               	movf	CapTouch_Check_Trigger@current_channel,w
  6071     060A  3E39               	addlw	(low ((_CapTouch| (0+256)+25)))& (0+255)
  6072     060B  0086               	movwf	6
  6073     060C  3001               	movlw	1	; select bank2/3
  6074     060D  0087               	movwf	7
  6075     060E  0301               	decf	1,w
  6076     060F  1D03               	btfss	3,2
  6077     0610  2E12               	goto	u2281
  6078     0611  2E13               	goto	u2280
  6079     0612                     u2281:
  6080     0612  2E20               	goto	l2861
  6081     0613                     u2280:
  6082     0613                     l2857:
  6083     0613  034F               	decf	CapTouch_Check_Trigger@current_state,w
  6084     0614  1D03               	btfss	3,2
  6085     0615  2E17               	goto	u2291
  6086     0616  2E18               	goto	u2290
  6087     0617                     u2291:
  6088     0617  2E20               	goto	l2861
  6089     0618                     u2290:
  6090     0618                     l2859:
  6091                           
  6092                           ;captouch.c: 246: CapTouch.TriggerMethod[current_channel]=0x02;
  6093     0618  0850               	movf	CapTouch_Check_Trigger@current_channel,w
  6094     0619  3E37               	addlw	(low ((_CapTouch| (0+256)+23)))& (0+255)
  6095     061A  0086               	movwf	6
  6096     061B  3001               	movlw	1	; select bank2/3
  6097     061C  0087               	movwf	7
  6098     061D  3002               	movlw	2
  6099     061E  0081               	movwf	1
  6100                           
  6101                           ;captouch.c: 247: }else{
  6102     061F  2E26               	goto	l199
  6103     0620                     l2861:
  6104                           
  6105                           ;captouch.c: 248: CapTouch.TriggerMethod[current_channel]=0x00;
  6106     0620  0850               	movf	CapTouch_Check_Trigger@current_channel,w
  6107     0621  3E37               	addlw	(low ((_CapTouch| (0+256)+23)))& (0+255)
  6108     0622  0086               	movwf	6
  6109     0623  3001               	movlw	1	; select bank2/3
  6110     0624  0087               	movwf	7
  6111     0625  0181               	clrf	1
  6112     0626                     l199:
  6113                           
  6114                           ;captouch.c: 249: };captouch.c: 250: CapTouch.LastTouchState[current_channel]=current_st
      +                          ate;
  6115     0626  0850               	movf	CapTouch_Check_Trigger@current_channel,w
  6116     0627  3E39               	addlw	(low ((_CapTouch| (0+256)+25)))& (0+255)
  6117     0628  0086               	movwf	6
  6118     0629  3001               	movlw	1	; select bank2/3
  6119     062A  0087               	movwf	7
  6120     062B  084F               	movf	CapTouch_Check_Trigger@current_state,w
  6121     062C  0081               	movwf	1
  6122     062D                     l204:
  6123     062D  0008               	return
  6124     062E                     __end_of_CapTouch_Check_Trigger:
  6125                           
  6126                           	psect	text19
  6127     0FC8                     __ptext19:	
  6128 ;; *************** function _CapTouch_Response *****************
  6129 ;; Defined at:
  6130 ;;		line 227 in file "captouch.c"
  6131 ;; Parameters:    Size  Location     Type
  6132 ;;  current_chan    1    wreg     unsigned char 
  6133 ;; Auto vars:     Size  Location     Type
  6134 ;;  current_chan    1   46[BANK0 ] unsigned char 
  6135 ;; Return value:  Size  Location     Type
  6136 ;;                  1    wreg      void 
  6137 ;; Registers used:
  6138 ;;		wreg, fsr1l, fsr1h, status,2, status,0, pclath, cstack
  6139 ;; Tracked objects:
  6140 ;;		On entry : 0/0
  6141 ;;		On exit  : 0/0
  6142 ;;		Unchanged: 0/0
  6143 ;; Data sizes:     COMMON   BANK0   BANK1   BANK2   BANK3   BANK4   BANK5   BANK6   BANK7   BANK8   BANK9  BANK10  BANK1
      +1  BANK12  BANK13  BANK14  BANK15  BANK16  BANK17  BANK18  BANK19  BANK20  BANK21  BANK22  BANK23  BANK24  BANK25
  6144 ;;      Params:         0       0       0       0       0       0       0       0       0       0       0       0       
      +0       0       0       0       0       0       0       0       0       0       0       0       0       0       0
  6145 ;;      Locals:         0       1       0       0       0       0       0       0       0       0       0       0       
      +0       0       0       0       0       0       0       0       0       0       0       0       0       0       0
  6146 ;;      Temps:          0       5       0       0       0       0       0       0       0       0       0       0       
      +0       0       0       0       0       0       0       0       0       0       0       0       0       0       0
  6147 ;;      Totals:         0       6       0       0       0       0       0       0       0       0       0       0       
      +0       0       0       0       0       0       0       0       0       0       0       0       0       0       0
  6148 ;;Total ram usage:        6 bytes
  6149 ;; Hardware stack levels used: 1
  6150 ;; Hardware stack levels required when called: 7
  6151 ;; This function calls:
  6152 ;;		_CapTouch_Read_Delta
  6153 ;; This function is called by:
  6154 ;;		_CapTouch_Check_Trigger
  6155 ;; This function uses a non-reentrant model
  6156 ;;
  6157                           
  6158     0FC8                     _CapTouch_Response:	
  6159                           ;psect for function _CapTouch_Response
  6160                           
  6161                           
  6162                           ;incstack = 0
  6163                           ; Regs used in _CapTouch_Response: [wreg+fsr1l+fsr1h+status,2+status,0+pclath+cstack]
  6164                           ;CapTouch_Response@current_channel stored from wreg
  6165     0FC8  0020               	movlb	0	; select bank0
  6166     0FC9  00CE               	movwf	CapTouch_Response@current_channel
  6167     0FCA                     l2829:
  6168                           
  6169                           ;captouch.c: 228: CapTouch_Read_Delta(current_channel);
  6170     0FCA  084E               	movf	CapTouch_Response@current_channel,w
  6171     0FCB  3183  230B  318F   	fcall	_CapTouch_Read_Delta
  6172     0FCE                     l2831:
  6173                           
  6174                           ;captouch.c: 229: if(CapTouch.CalibrationValue[current_channel]>CapTouch.RawDiffADC[curr
      +                          ent_channel]){
  6175     0FCE  0020               	movlb	0	; select bank0
  6176     0FCF  354E               	lslf	CapTouch_Response@current_channel,w
  6177     0FD0  3E23               	addlw	(low ((_CapTouch| (0+256)+3)))& (0+255)
  6178     0FD1  0086               	movwf	6
  6179     0FD2  3001               	movlw	1	; select bank2/3
  6180     0FD3  0087               	movwf	7
  6181     0FD4  3F40               	moviw [0]fsr1
  6182     0FD5  00C9               	movwf	??_CapTouch_Response
  6183     0FD6  3F41               	moviw [1]fsr1
  6184     0FD7  00CA               	movwf	??_CapTouch_Response+1
  6185     0FD8  354E               	lslf	CapTouch_Response@current_channel,w
  6186     0FD9  3E2F               	addlw	(low ((_CapTouch| (0+256)+15)))& (0+255)
  6187     0FDA  0086               	movwf	6
  6188     0FDB  3001               	movlw	1	; select bank2/3
  6189     0FDC  0087               	movwf	7
  6190     0FDD  3F40               	moviw [0]fsr1
  6191     0FDE  00CB               	movwf	??_CapTouch_Response+2
  6192     0FDF  3F41               	moviw [1]fsr1
  6193     0FE0  00CC               	movwf	??_CapTouch_Response+3
  6194     0FE1  084C               	movf	??_CapTouch_Response+3,w
  6195     0FE2  3A80               	xorlw	128
  6196     0FE3  00CD               	movwf	??_CapTouch_Response+4
  6197     0FE4  084A               	movf	??_CapTouch_Response+1,w
  6198     0FE5  3A80               	xorlw	128
  6199     0FE6  024D               	subwf	??_CapTouch_Response+4,w
  6200     0FE7  1D03               	skipz
  6201     0FE8  2FEB               	goto	u2235
  6202     0FE9  0849               	movf	??_CapTouch_Response,w
  6203     0FEA  024B               	subwf	??_CapTouch_Response+2,w
  6204     0FEB                     u2235:
  6205     0FEB  1803               	skipnc
  6206     0FEC  2FEE               	goto	u2231
  6207     0FED  2FEF               	goto	u2230
  6208     0FEE                     u2231:
  6209     0FEE  2FF8               	goto	l2835
  6210     0FEF                     u2230:
  6211     0FEF                     l2833:
  6212                           
  6213                           ;captouch.c: 230: CapTouch.Result[current_channel]=1;
  6214     0FEF  0020               	movlb	0	; select bank0
  6215     0FF0  084E               	movf	CapTouch_Response@current_channel,w
  6216     0FF1  3E21               	addlw	(low ((_CapTouch| (0+256)+1)))& (0+255)
  6217     0FF2  0086               	movwf	6
  6218     0FF3  3001               	movlw	1	; select bank2/3
  6219     0FF4  0087               	movwf	7
  6220     0FF5  0181               	clrf	1
  6221     0FF6  0A81               	incf	1,f
  6222                           
  6223                           ;captouch.c: 231: }else{
  6224     0FF7  2FFF               	goto	l195
  6225     0FF8                     l2835:
  6226                           
  6227                           ;captouch.c: 232: CapTouch.Result[current_channel]=0;
  6228     0FF8  0020               	movlb	0	; select bank0
  6229     0FF9  084E               	movf	CapTouch_Response@current_channel,w
  6230     0FFA  3E21               	addlw	(low ((_CapTouch| (0+256)+1)))& (0+255)
  6231     0FFB  0086               	movwf	6
  6232     0FFC  3001               	movlw	1	; select bank2/3
  6233     0FFD  0087               	movwf	7
  6234     0FFE  0181               	clrf	1
  6235     0FFF                     l195:
  6236     0FFF  0008               	return
  6237     1000                     __end_of_CapTouch_Response:
  6238                           
  6239                           	psect	text20
  6240     0D6F                     __ptext20:	
  6241 ;; *************** function _CapTouch_Init *****************
  6242 ;; Defined at:
  6243 ;;		line 359 in file "captouch.c"
  6244 ;; Parameters:    Size  Location     Type
  6245 ;;		None
  6246 ;; Auto vars:     Size  Location     Type
  6247 ;;		None
  6248 ;; Return value:  Size  Location     Type
  6249 ;;                  1    wreg      void 
  6250 ;; Registers used:
  6251 ;;		wreg, fsr0l, fsr0h, fsr1l, fsr1h, status,2, status,0, pclath, cstack
  6252 ;; Tracked objects:
  6253 ;;		On entry : 0/0
  6254 ;;		On exit  : 0/0
  6255 ;;		Unchanged: 0/0
  6256 ;; Data sizes:     COMMON   BANK0   BANK1   BANK2   BANK3   BANK4   BANK5   BANK6   BANK7   BANK8   BANK9  BANK10  BANK1
      +1  BANK12  BANK13  BANK14  BANK15  BANK16  BANK17  BANK18  BANK19  BANK20  BANK21  BANK22  BANK23  BANK24  BANK25
  6257 ;;      Params:         0       0       0       0       0       0       0       0       0       0       0       0       
      +0       0       0       0       0       0       0       0       0       0       0       0       0       0       0
  6258 ;;      Locals:         0       0       0       0       0       0       0       0       0       0       0       0       
      +0       0       0       0       0       0       0       0       0       0       0       0       0       0       0
  6259 ;;      Temps:          0       0       0       0       0       0       0       0       0       0       0       0       
      +0       0       0       0       0       0       0       0       0       0       0       0       0       0       0
  6260 ;;      Totals:         0       0       0       0       0       0       0       0       0       0       0       0       
      +0       0       0       0       0       0       0       0       0       0       0       0       0       0       0
  6261 ;;Total ram usage:        0 bytes
  6262 ;; Hardware stack levels used: 1
  6263 ;; Hardware stack levels required when called: 8
  6264 ;; This function calls:
  6265 ;;		_CapTouch_ADC_Register_Config
  6266 ;;		_CapTouch_Calibration
  6267 ;;		_CapTouch_IIR_Butterworth_Struct_Init
  6268 ;;		_CapTouch_Struct_Init
  6269 ;; This function is called by:
  6270 ;;		_main
  6271 ;; This function uses a non-reentrant model
  6272 ;;
  6273                           
  6274     0D6F                     _CapTouch_Init:	
  6275                           ;psect for function _CapTouch_Init
  6276                           
  6277     0D6F                     l3271:	
  6278                           ;incstack = 0
  6279                           ; Regs used in _CapTouch_Init: [wreg-fsr1h+status,2+status,0+pclath+cstack]
  6280                           
  6281                           
  6282                           ;captouch.c: 360: CapTouch_Struct_Init();
  6283     0D6F  3184  24DA  318D   	fcall	_CapTouch_Struct_Init
  6284                           
  6285                           ;captouch.c: 361: CapTouch_IIR_Butterworth_Struct_Init();
  6286     0D72  318F  2793  318D   	fcall	_CapTouch_IIR_Butterworth_Struct_Init
  6287     0D75                     l3273:
  6288                           
  6289                           ;captouch.c: 362: CapTouch_ADC_Register_Config();
  6290     0D75  318D  25C9  318D   	fcall	_CapTouch_ADC_Register_Config
  6291     0D78                     l3275:
  6292                           
  6293                           ;captouch.c: 363: CapTouch_Calibration();
  6294     0D78  3180  2075  318D   	fcall	_CapTouch_Calibration
  6295     0D7B                     l265:
  6296     0D7B  0008               	return
  6297     0D7C                     __end_of_CapTouch_Init:
  6298                           
  6299                           	psect	text21
  6300     04DA                     __ptext21:	
  6301 ;; *************** function _CapTouch_Struct_Init *****************
  6302 ;; Defined at:
  6303 ;;		line 61 in file "captouch.c"
  6304 ;; Parameters:    Size  Location     Type
  6305 ;;		None
  6306 ;; Auto vars:     Size  Location     Type
  6307 ;;  i               1    1[BANK0 ] unsigned char 
  6308 ;; Return value:  Size  Location     Type
  6309 ;;                  1    wreg      void 
  6310 ;; Registers used:
  6311 ;;		wreg, fsr1l, fsr1h, status,2, status,0
  6312 ;; Tracked objects:
  6313 ;;		On entry : 0/0
  6314 ;;		On exit  : 0/0
  6315 ;;		Unchanged: 0/0
  6316 ;; Data sizes:     COMMON   BANK0   BANK1   BANK2   BANK3   BANK4   BANK5   BANK6   BANK7   BANK8   BANK9  BANK10  BANK1
      +1  BANK12  BANK13  BANK14  BANK15  BANK16  BANK17  BANK18  BANK19  BANK20  BANK21  BANK22  BANK23  BANK24  BANK25
  6317 ;;      Params:         0       0       0       0       0       0       0       0       0       0       0       0       
      +0       0       0       0       0       0       0       0       0       0       0       0       0       0       0
  6318 ;;      Locals:         0       1       0       0       0       0       0       0       0       0       0       0       
      +0       0       0       0       0       0       0       0       0       0       0       0       0       0       0
  6319 ;;      Temps:          0       1       0       0       0       0       0       0       0       0       0       0       
      +0       0       0       0       0       0       0       0       0       0       0       0       0       0       0
  6320 ;;      Totals:         0       2       0       0       0       0       0       0       0       0       0       0       
      +0       0       0       0       0       0       0       0       0       0       0       0       0       0       0
  6321 ;;Total ram usage:        2 bytes
  6322 ;; Hardware stack levels used: 1
  6323 ;; Hardware stack levels required when called: 4
  6324 ;; This function calls:
  6325 ;;		Nothing
  6326 ;; This function is called by:
  6327 ;;		_CapTouch_Init
  6328 ;; This function uses a non-reentrant model
  6329 ;;
  6330                           
  6331     04DA                     _CapTouch_Struct_Init:	
  6332                           ;psect for function _CapTouch_Struct_Init
  6333                           
  6334     04DA                     l2943:	
  6335                           ;incstack = 0
  6336                           ; Regs used in _CapTouch_Struct_Init: [wreg+fsr1l+fsr1h+status,2+status,0]
  6337                           
  6338                           
  6339                           ;captouch.c: 62: CapTouch.Channel=0;
  6340     04DA  0022               	movlb	2	; select bank2
  6341     04DB  01A0               	clrf	_CapTouch^(0+256)
  6342                           
  6343                           ;captouch.c: 63: for(uint8_t i=0;i<2;i++){
  6344     04DC  0020               	movlb	0	; select bank0
  6345     04DD  01A1               	clrf	CapTouch_Struct_Init@i
  6346     04DE                     l2949:
  6347                           
  6348                           ;captouch.c: 64: CapTouch.Result[i]=0;
  6349     04DE  0821               	movf	CapTouch_Struct_Init@i,w
  6350     04DF  3E21               	addlw	(low ((_CapTouch| (0+256)+1)))& (0+255)
  6351     04E0  0086               	movwf	6
  6352     04E1  3001               	movlw	1	; select bank2/3
  6353     04E2  0087               	movwf	7
  6354     04E3  0181               	clrf	1
  6355                           
  6356                           ;captouch.c: 65: CapTouch.CalibrationValue[i]=0;
  6357     04E4  3521               	lslf	CapTouch_Struct_Init@i,w
  6358     04E5  3E23               	addlw	(low ((_CapTouch| (0+256)+3)))& (0+255)
  6359     04E6  0086               	movwf	6
  6360     04E7  3001               	movlw	1	; select bank2/3
  6361     04E8  0087               	movwf	7
  6362     04E9  3000               	movlw	0
  6363     04EA  3FC0               	movwi [0]fsr1
  6364     04EB  3FC1               	movwi [1]fsr1
  6365                           
  6366                           ;captouch.c: 66: CapTouch.RawADC1[i]=0;
  6367     04EC  3521               	lslf	CapTouch_Struct_Init@i,w
  6368     04ED  3E27               	addlw	(low ((_CapTouch| (0+256)+7)))& (0+255)
  6369     04EE  0086               	movwf	6
  6370     04EF  3001               	movlw	1	; select bank2/3
  6371     04F0  0087               	movwf	7
  6372     04F1  3000               	movlw	0
  6373     04F2  3FC0               	movwi [0]fsr1
  6374     04F3  3FC1               	movwi [1]fsr1
  6375                           
  6376                           ;captouch.c: 67: CapTouch.RawADC2[i]=0;
  6377     04F4  3521               	lslf	CapTouch_Struct_Init@i,w
  6378     04F5  3E2B               	addlw	(low ((_CapTouch| (0+256)+11)))& (0+255)
  6379     04F6  0086               	movwf	6
  6380     04F7  3001               	movlw	1	; select bank2/3
  6381     04F8  0087               	movwf	7
  6382     04F9  3000               	movlw	0
  6383     04FA  3FC0               	movwi [0]fsr1
  6384     04FB  3FC1               	movwi [1]fsr1
  6385                           
  6386                           ;captouch.c: 68: CapTouch.RawDiffADC[i]=0;
  6387     04FC  3521               	lslf	CapTouch_Struct_Init@i,w
  6388     04FD  3E2F               	addlw	(low ((_CapTouch| (0+256)+15)))& (0+255)
  6389     04FE  0086               	movwf	6
  6390     04FF  3001               	movlw	1	; select bank2/3
  6391     0500  0087               	movwf	7
  6392     0501  3000               	movlw	0
  6393     0502  3FC0               	movwi [0]fsr1
  6394     0503  3FC1               	movwi [1]fsr1
  6395                           
  6396                           ;captouch.c: 69: CapTouch.DiffThreshold[i]=20;
  6397     0504  3521               	lslf	CapTouch_Struct_Init@i,w
  6398     0505  3E33               	addlw	(low ((_CapTouch| (0+256)+19)))& (0+255)
  6399     0506  0086               	movwf	6
  6400     0507  3001               	movlw	1	; select bank2/3
  6401     0508  0087               	movwf	7
  6402     0509  3014               	movlw	20
  6403     050A  3FC0               	movwi [0]fsr1
  6404     050B  3000               	movlw	0
  6405     050C  3FC1               	movwi [1]fsr1
  6406                           
  6407                           ;captouch.c: 70: CapTouch.TriggerMethod[i]=0;
  6408     050D  0821               	movf	CapTouch_Struct_Init@i,w
  6409     050E  3E37               	addlw	(low ((_CapTouch| (0+256)+23)))& (0+255)
  6410     050F  0086               	movwf	6
  6411     0510  3001               	movlw	1	; select bank2/3
  6412     0511  0087               	movwf	7
  6413     0512  0181               	clrf	1
  6414                           
  6415                           ;captouch.c: 71: CapTouch.LastTouchState[i]=0;
  6416     0513  0821               	movf	CapTouch_Struct_Init@i,w
  6417     0514  3E39               	addlw	(low ((_CapTouch| (0+256)+25)))& (0+255)
  6418     0515  0086               	movwf	6
  6419     0516  3001               	movlw	1	; select bank2/3
  6420     0517  0087               	movwf	7
  6421     0518  0181               	clrf	1
  6422                           
  6423                           ;captouch.c: 72: CapTouch.TouchDuration[i]=0;
  6424     0519  0821               	movf	CapTouch_Struct_Init@i,w
  6425     051A  00A0               	movwf	??_CapTouch_Struct_Init
  6426     051B  3001               	movlw	1
  6427     051C                     u2505:
  6428     051C  35A0               	lslf	??_CapTouch_Struct_Init,f
  6429     051D  3EFF               	addlw	-1
  6430     051E  1D03               	skipz
  6431     051F  2D1C               	goto	u2505
  6432     0520  3520               	lslf	??_CapTouch_Struct_Init,w
  6433     0521  3E3B               	addlw	(low ((_CapTouch| (0+256)+27)))& (0+255)
  6434     0522  0086               	movwf	6
  6435     0523  3001               	movlw	1	; select bank2/3
  6436     0524  0087               	movwf	7
  6437     0525  3000               	movlw	0
  6438     0526  3FC0               	movwi [0]fsr1
  6439     0527  3000               	movlw	0
  6440     0528  3FC1               	movwi [1]fsr1
  6441     0529  3FC2               	movwi [2]fsr1
  6442     052A  3FC3               	movwi [3]fsr1
  6443                           
  6444                           ;captouch.c: 73: CapTouch.TouchDurationTemp[i]=0;
  6445     052B  0821               	movf	CapTouch_Struct_Init@i,w
  6446     052C  00A0               	movwf	??_CapTouch_Struct_Init
  6447     052D  3001               	movlw	1
  6448     052E                     u2515:
  6449     052E  35A0               	lslf	??_CapTouch_Struct_Init,f
  6450     052F  3EFF               	addlw	-1
  6451     0530  1D03               	skipz
  6452     0531  2D2E               	goto	u2515
  6453     0532  3520               	lslf	??_CapTouch_Struct_Init,w
  6454     0533  3E43               	addlw	(low ((_CapTouch| (0+256)+35)))& (0+255)
  6455     0534  0086               	movwf	6
  6456     0535  3001               	movlw	1	; select bank2/3
  6457     0536  0087               	movwf	7
  6458     0537  3000               	movlw	0
  6459     0538  3FC0               	movwi [0]fsr1
  6460     0539  3000               	movlw	0
  6461     053A  3FC1               	movwi [1]fsr1
  6462     053B  3FC2               	movwi [2]fsr1
  6463     053C  3FC3               	movwi [3]fsr1
  6464                           
  6465                           ;captouch.c: 74: CapTouch.LongTouchFlag[i]=0;
  6466     053D  0821               	movf	CapTouch_Struct_Init@i,w
  6467     053E  3E4B               	addlw	(low ((_CapTouch| (0+256)+43)))& (0+255)
  6468     053F  0086               	movwf	6
  6469     0540  3001               	movlw	1	; select bank2/3
  6470     0541  0087               	movwf	7
  6471     0542  0181               	clrf	1
  6472     0543                     l2951:
  6473                           
  6474                           ;captouch.c: 75: CapTouch.UsingReferenceTimer=0;
  6475     0543  0022               	movlb	2	; select bank2
  6476     0544  01CD               	clrf	(_CapTouch^(0+256)+45)
  6477     0545                     l2953:
  6478                           
  6479                           ;captouch.c: 76: CapTouch.ErrorCode[i]=0;
  6480     0545  0020               	movlb	0	; select bank0
  6481     0546  0821               	movf	CapTouch_Struct_Init@i,w
  6482     0547  3E4E               	addlw	(low ((_CapTouch| (0+256)+46)))& (0+255)
  6483     0548  0086               	movwf	6
  6484     0549  3001               	movlw	1	; select bank2/3
  6485     054A  0087               	movwf	7
  6486     054B  0181               	clrf	1
  6487     054C                     l2955:
  6488     054C  3001               	movlw	1
  6489     054D  00A0               	movwf	??_CapTouch_Struct_Init
  6490     054E  0820               	movf	??_CapTouch_Struct_Init,w
  6491     054F  07A1               	addwf	CapTouch_Struct_Init@i,f
  6492     0550                     l2957:
  6493     0550  3002               	movlw	2
  6494     0551  0221               	subwf	CapTouch_Struct_Init@i,w
  6495     0552  1C03               	skipc
  6496     0553  2D55               	goto	u2521
  6497     0554  2D56               	goto	u2520
  6498     0555                     u2521:
  6499     0555  2CDE               	goto	l2949
  6500     0556                     u2520:
  6501     0556                     l119:
  6502     0556  0008               	return
  6503     0557                     __end_of_CapTouch_Struct_Init:
  6504                           
  6505                           	psect	text22
  6506     0F93                     __ptext22:	
  6507 ;; *************** function _CapTouch_IIR_Butterworth_Struct_Init *****************
  6508 ;; Defined at:
  6509 ;;		line 80 in file "captouch.c"
  6510 ;; Parameters:    Size  Location     Type
  6511 ;;		None
  6512 ;; Auto vars:     Size  Location     Type
  6513 ;;  i               1    1[BANK0 ] unsigned char 
  6514 ;; Return value:  Size  Location     Type
  6515 ;;                  1    wreg      void 
  6516 ;; Registers used:
  6517 ;;		wreg, fsr1l, fsr1h, status,2, status,0
  6518 ;; Tracked objects:
  6519 ;;		On entry : 0/0
  6520 ;;		On exit  : 0/0
  6521 ;;		Unchanged: 0/0
  6522 ;; Data sizes:     COMMON   BANK0   BANK1   BANK2   BANK3   BANK4   BANK5   BANK6   BANK7   BANK8   BANK9  BANK10  BANK1
      +1  BANK12  BANK13  BANK14  BANK15  BANK16  BANK17  BANK18  BANK19  BANK20  BANK21  BANK22  BANK23  BANK24  BANK25
  6523 ;;      Params:         0       0       0       0       0       0       0       0       0       0       0       0       
      +0       0       0       0       0       0       0       0       0       0       0       0       0       0       0
  6524 ;;      Locals:         0       1       0       0       0       0       0       0       0       0       0       0       
      +0       0       0       0       0       0       0       0       0       0       0       0       0       0       0
  6525 ;;      Temps:          0       1       0       0       0       0       0       0       0       0       0       0       
      +0       0       0       0       0       0       0       0       0       0       0       0       0       0       0
  6526 ;;      Totals:         0       2       0       0       0       0       0       0       0       0       0       0       
      +0       0       0       0       0       0       0       0       0       0       0       0       0       0       0
  6527 ;;Total ram usage:        2 bytes
  6528 ;; Hardware stack levels used: 1
  6529 ;; Hardware stack levels required when called: 4
  6530 ;; This function calls:
  6531 ;;		Nothing
  6532 ;; This function is called by:
  6533 ;;		_CapTouch_Init
  6534 ;; This function uses a non-reentrant model
  6535 ;;
  6536                           
  6537     0F93                     _CapTouch_IIR_Butterworth_Struct_Init:	
  6538                           ;psect for function _CapTouch_IIR_Butterworth_Struct_Init
  6539                           
  6540     0F93                     l2959:	
  6541                           ;incstack = 0
  6542                           ; Regs used in _CapTouch_IIR_Butterworth_Struct_Init: [wreg+fsr1l+fsr1h+status,2+status,
      +                          0]
  6543                           
  6544                           
  6545                           ;captouch.c: 81: for(uint8_t i=0;i<2;i++){
  6546     0F93  0020               	movlb	0	; select bank0
  6547     0F94  01A1               	clrf	CapTouch_IIR_Butterworth_Struct_Init@i
  6548     0F95                     l2965:
  6549                           
  6550                           ;captouch.c: 83: IIR.Alpha[i]=70;
  6551     0F95  0821               	movf	CapTouch_IIR_Butterworth_Struct_Init@i,w
  6552     0F96  3EC2               	addlw	(low (_IIR| 0))& (0+255)
  6553     0F97  0086               	movwf	6
  6554     0F98  0187               	clrf	7
  6555     0F99  3046               	movlw	70
  6556     0F9A  0081               	movwf	1
  6557                           
  6558                           ;captouch.c: 87: IIR.Input[i]=0;
  6559     0F9B  0821               	movf	CapTouch_IIR_Butterworth_Struct_Init@i,w
  6560     0F9C  00A0               	movwf	??_CapTouch_IIR_Butterworth_Struct_Init
  6561     0F9D  3001               	movlw	1
  6562     0F9E                     u2535:
  6563     0F9E  35A0               	lslf	??_CapTouch_IIR_Butterworth_Struct_Init,f
  6564     0F9F  3EFF               	addlw	-1
  6565     0FA0  1D03               	skipz
  6566     0FA1  2F9E               	goto	u2535
  6567     0FA2  3520               	lslf	??_CapTouch_IIR_Butterworth_Struct_Init,w
  6568     0FA3  3EC4               	addlw	(low ((_IIR| 0+2)))& (0+255)
  6569     0FA4  0086               	movwf	6
  6570     0FA5  0187               	clrf	7
  6571     0FA6  3000               	movlw	0
  6572     0FA7  3FC0               	movwi [0]fsr1
  6573     0FA8  3000               	movlw	0
  6574     0FA9  3FC1               	movwi [1]fsr1
  6575     0FAA  3FC2               	movwi [2]fsr1
  6576     0FAB  3FC3               	movwi [3]fsr1
  6577                           
  6578                           ;captouch.c: 88: IIR.Output[i]=0;
  6579     0FAC  0821               	movf	CapTouch_IIR_Butterworth_Struct_Init@i,w
  6580     0FAD  00A0               	movwf	??_CapTouch_IIR_Butterworth_Struct_Init
  6581     0FAE  3001               	movlw	1
  6582     0FAF                     u2545:
  6583     0FAF  35A0               	lslf	??_CapTouch_IIR_Butterworth_Struct_Init,f
  6584     0FB0  3EFF               	addlw	-1
  6585     0FB1  1D03               	skipz
  6586     0FB2  2FAF               	goto	u2545
  6587     0FB3  3520               	lslf	??_CapTouch_IIR_Butterworth_Struct_Init,w
  6588     0FB4  3ECC               	addlw	(low ((_IIR| 0+10)))& (0+255)
  6589     0FB5  0086               	movwf	6
  6590     0FB6  0187               	clrf	7
  6591     0FB7  3000               	movlw	0
  6592     0FB8  3FC0               	movwi [0]fsr1
  6593     0FB9  3000               	movlw	0
  6594     0FBA  3FC1               	movwi [1]fsr1
  6595     0FBB  3FC2               	movwi [2]fsr1
  6596     0FBC  3FC3               	movwi [3]fsr1
  6597     0FBD                     l2967:
  6598     0FBD  3001               	movlw	1
  6599     0FBE  00A0               	movwf	??_CapTouch_IIR_Butterworth_Struct_Init
  6600     0FBF  0820               	movf	??_CapTouch_IIR_Butterworth_Struct_Init,w
  6601     0FC0  07A1               	addwf	CapTouch_IIR_Butterworth_Struct_Init@i,f
  6602     0FC1                     l2969:
  6603     0FC1  3002               	movlw	2
  6604     0FC2  0221               	subwf	CapTouch_IIR_Butterworth_Struct_Init@i,w
  6605     0FC3  1C03               	skipc
  6606     0FC4  2FC6               	goto	u2551
  6607     0FC5  2FC7               	goto	u2550
  6608     0FC6                     u2551:
  6609     0FC6  2F95               	goto	l2965
  6610     0FC7                     u2550:
  6611     0FC7                     l124:
  6612     0FC7  0008               	return
  6613     0FC8                     __end_of_CapTouch_IIR_Butterworth_Struct_Init:
  6614                           
  6615                           	psect	text23
  6616     0075                     __ptext23:	
  6617 ;; *************** function _CapTouch_Calibration *****************
  6618 ;; Defined at:
  6619 ;;		line 201 in file "captouch.c"
  6620 ;; Parameters:    Size  Location     Type
  6621 ;;		None
  6622 ;; Auto vars:     Size  Location     Type
  6623 ;;  key             1   62[BANK0 ] unsigned char 
  6624 ;;  key             1   61[BANK0 ] unsigned char 
  6625 ;;  key             1   63[BANK0 ] unsigned char 
  6626 ;;  i               2   50[BANK0 ] int 
  6627 ;;  i               2   48[BANK0 ] int 
  6628 ;;  key             1   60[BANK0 ] unsigned char 
  6629 ;;  sum             8   52[BANK0 ] long [2]
  6630 ;; Return value:  Size  Location     Type
  6631 ;;                  1    wreg      void 
  6632 ;; Registers used:
  6633 ;;		wreg, fsr0l, fsr0h, fsr1l, fsr1h, status,2, status,0, pclath, cstack
  6634 ;; Tracked objects:
  6635 ;;		On entry : 0/0
  6636 ;;		On exit  : 0/0
  6637 ;;		Unchanged: 0/0
  6638 ;; Data sizes:     COMMON   BANK0   BANK1   BANK2   BANK3   BANK4   BANK5   BANK6   BANK7   BANK8   BANK9  BANK10  BANK1
      +1  BANK12  BANK13  BANK14  BANK15  BANK16  BANK17  BANK18  BANK19  BANK20  BANK21  BANK22  BANK23  BANK24  BANK25
  6639 ;;      Params:         0       0       0       0       0       0       0       0       0       0       0       0       
      +0       0       0       0       0       0       0       0       0       0       0       0       0       0       0
  6640 ;;      Locals:         0      16       0       0       0       0       0       0       0       0       0       0       
      +0       0       0       0       0       0       0       0       0       0       0       0       0       0       0
  6641 ;;      Temps:          0       7       0       0       0       0       0       0       0       0       0       0       
      +0       0       0       0       0       0       0       0       0       0       0       0       0       0       0
  6642 ;;      Totals:         0      23       0       0       0       0       0       0       0       0       0       0       
      +0       0       0       0       0       0       0       0       0       0       0       0       0       0       0
  6643 ;;Total ram usage:       23 bytes
  6644 ;; Hardware stack levels used: 1
  6645 ;; Hardware stack levels required when called: 7
  6646 ;; This function calls:
  6647 ;;		_CapTouch_Read_Delta
  6648 ;;		___aldiv
  6649 ;; This function is called by:
  6650 ;;		_CapTouch_Init
  6651 ;; This function uses a non-reentrant model
  6652 ;;
  6653                           
  6654     0075                     _CapTouch_Calibration:	
  6655                           ;psect for function _CapTouch_Calibration
  6656                           
  6657     0075                     l2983:	
  6658                           ;incstack = 0
  6659                           ; Regs used in _CapTouch_Calibration: [wreg-fsr1h+status,2+status,0+pclath+cstack]
  6660                           
  6661                           
  6662                           ;captouch.c: 202: int32_t sum[2];;captouch.c: 203: for(uint8_t key=0;key<2;key++){
  6663     0075  0020               	movlb	0	; select bank0
  6664     0076  01DC               	clrf	CapTouch_Calibration@key
  6665     0077                     l2989:
  6666                           
  6667                           ;captouch.c: 204: sum[key]=0;
  6668     0077  085C               	movf	CapTouch_Calibration@key,w
  6669     0078  00C9               	movwf	??_CapTouch_Calibration
  6670     0079  3001               	movlw	1
  6671     007A                     u2575:
  6672     007A  35C9               	lslf	??_CapTouch_Calibration,f
  6673     007B  3EFF               	addlw	-1
  6674     007C  1D03               	skipz
  6675     007D  287A               	goto	u2575
  6676     007E  3549               	lslf	??_CapTouch_Calibration,w
  6677     007F  3E54               	addlw	(low (CapTouch_Calibration@sum| 0))& (0+255)
  6678     0080  0086               	movwf	6
  6679     0081  0187               	clrf	7
  6680     0082  3000               	movlw	0
  6681     0083  3FC0               	movwi [0]fsr1
  6682     0084  3000               	movlw	0
  6683     0085  3FC1               	movwi [1]fsr1
  6684     0086  3FC2               	movwi [2]fsr1
  6685     0087  3FC3               	movwi [3]fsr1
  6686     0088                     l2991:
  6687     0088  3001               	movlw	1
  6688     0089  00C9               	movwf	??_CapTouch_Calibration
  6689     008A  0849               	movf	??_CapTouch_Calibration,w
  6690     008B  07DC               	addwf	CapTouch_Calibration@key,f
  6691     008C                     l2993:
  6692     008C  3002               	movlw	2
  6693     008D  025C               	subwf	CapTouch_Calibration@key,w
  6694     008E  1C03               	skipc
  6695     008F  2891               	goto	u2581
  6696     0090  2892               	goto	u2580
  6697     0091                     u2581:
  6698     0091  2877               	goto	l2989
  6699     0092                     u2580:
  6700     0092                     l2995:
  6701                           
  6702                           ;captouch.c: 205: };captouch.c: 207: for(int i=0;i<240;i++){
  6703     0092  01D0               	clrf	CapTouch_Calibration@i
  6704     0093  01D1               	clrf	CapTouch_Calibration@i+1
  6705     0094                     l3001:
  6706                           
  6707                           ;captouch.c: 208: for(uint8_t key=0;key<2;key++){
  6708     0094  0020               	movlb	0	; select bank0
  6709     0095  01DD               	clrf	CapTouch_Calibration@key_228
  6710     0096                     l3007:
  6711                           
  6712                           ;captouch.c: 209: CapTouch_Read_Delta(key);
  6713     0096  085D               	movf	CapTouch_Calibration@key_228,w
  6714     0097  3183  230B  3180   	fcall	_CapTouch_Read_Delta
  6715     009A                     l3009:
  6716     009A  3001               	movlw	1
  6717     009B  0020               	movlb	0	; select bank0
  6718     009C  00C9               	movwf	??_CapTouch_Calibration
  6719     009D  0849               	movf	??_CapTouch_Calibration,w
  6720     009E  07DD               	addwf	CapTouch_Calibration@key_228,f
  6721     009F                     l3011:
  6722     009F  3002               	movlw	2
  6723     00A0  025D               	subwf	CapTouch_Calibration@key_228,w
  6724     00A1  1C03               	skipc
  6725     00A2  28A4               	goto	u2591
  6726     00A3  28A5               	goto	u2590
  6727     00A4                     u2591:
  6728     00A4  2896               	goto	l3007
  6729     00A5                     u2590:
  6730     00A5                     l3013:
  6731     00A5  3001               	movlw	1
  6732     00A6  07D0               	addwf	CapTouch_Calibration@i,f
  6733     00A7  3000               	movlw	0
  6734     00A8  3DD1               	addwfc	CapTouch_Calibration@i+1,f
  6735     00A9  0851               	movf	CapTouch_Calibration@i+1,w
  6736     00AA  3A80               	xorlw	128
  6737     00AB  00C9               	movwf	??_CapTouch_Calibration
  6738     00AC  3080               	movlw	128
  6739     00AD  0249               	subwf	??_CapTouch_Calibration,w
  6740     00AE  1D03               	skipz
  6741     00AF  28B2               	goto	u2605
  6742     00B0  30F0               	movlw	240
  6743     00B1  0250               	subwf	CapTouch_Calibration@i,w
  6744     00B2                     u2605:
  6745     00B2  1C03               	skipc
  6746     00B3  28B5               	goto	u2601
  6747     00B4  28B6               	goto	u2600
  6748     00B5                     u2601:
  6749     00B5  2894               	goto	l3001
  6750     00B6                     u2600:
  6751     00B6                     l3015:
  6752                           
  6753                           ;captouch.c: 210: };captouch.c: 211: };captouch.c: 213: for(int i=0;i<240;i++){
  6754     00B6  0020               	movlb	0	; select bank0
  6755     00B7  01D2               	clrf	CapTouch_Calibration@i_230
  6756     00B8  01D3               	clrf	CapTouch_Calibration@i_230+1
  6757     00B9                     l3021:
  6758                           
  6759                           ;captouch.c: 214: for(uint8_t key=0;key<2;key++){
  6760     00B9  0020               	movlb	0	; select bank0
  6761     00BA  01DE               	clrf	CapTouch_Calibration@key_231
  6762     00BB                     l3027:
  6763                           
  6764                           ;captouch.c: 215: CapTouch_Read_Delta(key);
  6765     00BB  085E               	movf	CapTouch_Calibration@key_231,w
  6766     00BC  3183  230B  3180   	fcall	_CapTouch_Read_Delta
  6767     00BF                     l3029:
  6768                           
  6769                           ;captouch.c: 216: sum[key]+=CapTouch.RawDiffADC[key];
  6770     00BF  0020               	movlb	0	; select bank0
  6771     00C0  355E               	lslf	CapTouch_Calibration@key_231,w
  6772     00C1  3E2F               	addlw	(low ((_CapTouch| (0+256)+15)))& (0+255)
  6773     00C2  0086               	movwf	6
  6774     00C3  3001               	movlw	1	; select bank2/3
  6775     00C4  0087               	movwf	7
  6776     00C5  3F40               	moviw [0]fsr1
  6777     00C6  00C9               	movwf	??_CapTouch_Calibration
  6778     00C7  3F41               	moviw [1]fsr1
  6779     00C8  00CA               	movwf	??_CapTouch_Calibration+1
  6780     00C9  0849               	movf	??_CapTouch_Calibration,w
  6781     00CA  00CB               	movwf	??_CapTouch_Calibration+2
  6782     00CB  084A               	movf	??_CapTouch_Calibration+1,w
  6783     00CC  00CC               	movwf	??_CapTouch_Calibration+3
  6784     00CD  3000               	movlw	0
  6785     00CE  1BCC               	btfsc	??_CapTouch_Calibration+3,7
  6786     00CF  30FF               	movlw	255
  6787     00D0  00CD               	movwf	??_CapTouch_Calibration+4
  6788     00D1  00CE               	movwf	??_CapTouch_Calibration+5
  6789     00D2  085E               	movf	CapTouch_Calibration@key_231,w
  6790     00D3  00CF               	movwf	??_CapTouch_Calibration+6
  6791     00D4  3001               	movlw	1
  6792     00D5                     u2615:
  6793     00D5  35CF               	lslf	??_CapTouch_Calibration+6,f
  6794     00D6  3EFF               	addlw	-1
  6795     00D7  1D03               	skipz
  6796     00D8  28D5               	goto	u2615
  6797     00D9  354F               	lslf	??_CapTouch_Calibration+6,w
  6798     00DA  3E54               	addlw	(low (CapTouch_Calibration@sum| 0))& (0+255)
  6799     00DB  0086               	movwf	6
  6800     00DC  0187               	clrf	7
  6801     00DD  084B               	movf	??_CapTouch_Calibration+2,w
  6802     00DE  0781               	addwf	1,f
  6803     00DF  3141               	addfsr 1,1
  6804     00E0  084C               	movf	??_CapTouch_Calibration+3,w
  6805     00E1  3D81               	addwfc	1,f
  6806     00E2  3141               	addfsr 1,1
  6807     00E3  084D               	movf	??_CapTouch_Calibration+4,w
  6808     00E4  3D81               	addwfc	1,f
  6809     00E5  3141               	addfsr 1,1
  6810     00E6  084E               	movf	??_CapTouch_Calibration+5,w
  6811     00E7  3D81               	addwfc	1,f
  6812     00E8                     l3031:
  6813     00E8  3001               	movlw	1
  6814     00E9  00C9               	movwf	??_CapTouch_Calibration
  6815     00EA  0849               	movf	??_CapTouch_Calibration,w
  6816     00EB  07DE               	addwf	CapTouch_Calibration@key_231,f
  6817     00EC                     l3033:
  6818     00EC  3002               	movlw	2
  6819     00ED  025E               	subwf	CapTouch_Calibration@key_231,w
  6820     00EE  1C03               	skipc
  6821     00EF  28F1               	goto	u2621
  6822     00F0  28F2               	goto	u2620
  6823     00F1                     u2621:
  6824     00F1  28BB               	goto	l3027
  6825     00F2                     u2620:
  6826     00F2                     l3035:
  6827     00F2  3001               	movlw	1
  6828     00F3  07D2               	addwf	CapTouch_Calibration@i_230,f
  6829     00F4  3000               	movlw	0
  6830     00F5  3DD3               	addwfc	CapTouch_Calibration@i_230+1,f
  6831     00F6  0853               	movf	CapTouch_Calibration@i_230+1,w
  6832     00F7  3A80               	xorlw	128
  6833     00F8  00C9               	movwf	??_CapTouch_Calibration
  6834     00F9  3080               	movlw	128
  6835     00FA  0249               	subwf	??_CapTouch_Calibration,w
  6836     00FB  1D03               	skipz
  6837     00FC  28FF               	goto	u2635
  6838     00FD  30F0               	movlw	240
  6839     00FE  0252               	subwf	CapTouch_Calibration@i_230,w
  6840     00FF                     u2635:
  6841     00FF  1C03               	skipc
  6842     0100  2902               	goto	u2631
  6843     0101  2903               	goto	u2630
  6844     0102                     u2631:
  6845     0102  28B9               	goto	l3021
  6846     0103                     u2630:
  6847     0103                     l3037:
  6848                           
  6849                           ;captouch.c: 217: };captouch.c: 218: };captouch.c: 220: for(uint8_t key=0;key<2;key++){
  6850     0103  0020               	movlb	0	; select bank0
  6851     0104  01DF               	clrf	CapTouch_Calibration@key_232
  6852     0105                     l3043:
  6853                           
  6854                           ;captouch.c: 221: sum[key]/=240;
  6855     0105  3000               	movlw	0
  6856     0106  00A3               	movwf	___aldiv@divisor+3
  6857     0107  3000               	movlw	0
  6858     0108  00A2               	movwf	___aldiv@divisor+2
  6859     0109  3000               	movlw	0
  6860     010A  00A1               	movwf	___aldiv@divisor+1
  6861     010B  30F0               	movlw	240
  6862     010C  00A0               	movwf	___aldiv@divisor
  6863     010D  085F               	movf	CapTouch_Calibration@key_232,w
  6864     010E  00C9               	movwf	??_CapTouch_Calibration
  6865     010F  3001               	movlw	1
  6866     0110                     u2645:
  6867     0110  35C9               	lslf	??_CapTouch_Calibration,f
  6868     0111  3EFF               	addlw	-1
  6869     0112  1D03               	skipz
  6870     0113  2910               	goto	u2645
  6871     0114  3549               	lslf	??_CapTouch_Calibration,w
  6872     0115  3E54               	addlw	(low (CapTouch_Calibration@sum| 0))& (0+255)
  6873     0116  0086               	movwf	6
  6874     0117  0187               	clrf	7
  6875     0118  3F40               	moviw [0]fsr1
  6876     0119  00A4               	movwf	___aldiv@dividend
  6877     011A  3F41               	moviw [1]fsr1
  6878     011B  00A5               	movwf	___aldiv@dividend+1
  6879     011C  3F42               	moviw [2]fsr1
  6880     011D  00A6               	movwf	___aldiv@dividend+2
  6881     011E  3F43               	moviw [3]fsr1
  6882     011F  00A7               	movwf	___aldiv@dividend+3
  6883     0120  3184  244A  3180   	fcall	___aldiv
  6884     0123  0020               	movlb	0	; select bank0
  6885     0124  085F               	movf	CapTouch_Calibration@key_232,w
  6886     0125  00CA               	movwf	??_CapTouch_Calibration+1
  6887     0126  3001               	movlw	1
  6888     0127                     u2655:
  6889     0127  35CA               	lslf	??_CapTouch_Calibration+1,f
  6890     0128  3EFF               	addlw	-1
  6891     0129  1D03               	skipz
  6892     012A  2927               	goto	u2655
  6893     012B  354A               	lslf	??_CapTouch_Calibration+1,w
  6894     012C  3E54               	addlw	(low (CapTouch_Calibration@sum| 0))& (0+255)
  6895     012D  0086               	movwf	6
  6896     012E  0187               	clrf	7
  6897     012F  0820               	movf	?___aldiv,w
  6898     0130  3FC0               	movwi [0]fsr1
  6899     0131  0821               	movf	?___aldiv+1,w
  6900     0132  3FC1               	movwi [1]fsr1
  6901     0133  0822               	movf	?___aldiv+2,w
  6902     0134  3FC2               	movwi [2]fsr1
  6903     0135  0823               	movf	?___aldiv+3,w
  6904     0136  3FC3               	movwi [3]fsr1
  6905     0137                     l3045:
  6906                           
  6907                           ;captouch.c: 222: CapTouch.CalibrationValue[key]=sum[key]-CapTouch.DiffThreshold[key];
  6908     0137  355F               	lslf	CapTouch_Calibration@key_232,w
  6909     0138  3E33               	addlw	(low ((_CapTouch| (0+256)+19)))& (0+255)
  6910     0139  0086               	movwf	6
  6911     013A  3001               	movlw	1	; select bank2/3
  6912     013B  0087               	movwf	7
  6913     013C  085F               	movf	CapTouch_Calibration@key_232,w
  6914     013D  00C9               	movwf	??_CapTouch_Calibration
  6915     013E  3001               	movlw	1
  6916     013F                     u2665:
  6917     013F  35C9               	lslf	??_CapTouch_Calibration,f
  6918     0140  3EFF               	addlw	-1
  6919     0141  1D03               	skipz
  6920     0142  293F               	goto	u2665
  6921     0143  3549               	lslf	??_CapTouch_Calibration,w
  6922     0144  3E54               	addlw	(low (CapTouch_Calibration@sum| 0))& (0+255)
  6923     0145  0084               	movwf	4
  6924     0146  0185               	clrf	5
  6925     0147  3F40               	moviw [0]fsr1
  6926     0148  0200               	subwf	0,w
  6927     0149  00CA               	movwf	??_CapTouch_Calibration+1
  6928     014A  3101               	addfsr 0,1
  6929     014B  3F41               	moviw [1]fsr1
  6930     014C  3B00               	subwfb	0,w
  6931     014D  00CB               	movwf	??_CapTouch_Calibration+2
  6932     014E  355F               	lslf	CapTouch_Calibration@key_232,w
  6933     014F  3E23               	addlw	(low ((_CapTouch| (0+256)+3)))& (0+255)
  6934     0150  0086               	movwf	6
  6935     0151  3001               	movlw	1	; select bank2/3
  6936     0152  0087               	movwf	7
  6937     0153  084A               	movf	??_CapTouch_Calibration+1,w
  6938     0154  3FC0               	movwi [0]fsr1
  6939     0155  084B               	movf	??_CapTouch_Calibration+2,w
  6940     0156  3FC1               	movwi [1]fsr1
  6941     0157                     l3047:
  6942     0157  3001               	movlw	1
  6943     0158  00C9               	movwf	??_CapTouch_Calibration
  6944     0159  0849               	movf	??_CapTouch_Calibration,w
  6945     015A  07DF               	addwf	CapTouch_Calibration@key_232,f
  6946     015B                     l3049:
  6947     015B  3002               	movlw	2
  6948     015C  025F               	subwf	CapTouch_Calibration@key_232,w
  6949     015D  1C03               	skipc
  6950     015E  2960               	goto	u2671
  6951     015F  2961               	goto	u2670
  6952     0160                     u2671:
  6953     0160  2905               	goto	l3043
  6954     0161                     u2670:
  6955     0161                     l190:
  6956     0161  0008               	return
  6957     0162                     __end_of_CapTouch_Calibration:
  6958                           
  6959                           	psect	text24
  6960     030B                     __ptext24:	
  6961 ;; *************** function _CapTouch_Read_Delta *****************
  6962 ;; Defined at:
  6963 ;;		line 173 in file "captouch.c"
  6964 ;; Parameters:    Size  Location     Type
  6965 ;;  current_chan    1    wreg     unsigned char 
  6966 ;; Auto vars:     Size  Location     Type
  6967 ;;  current_chan    1   40[BANK0 ] unsigned char 
  6968 ;;  temp            4   36[BANK0 ] unsigned long 
  6969 ;;  delta           2   34[BANK0 ] int 
  6970 ;; Return value:  Size  Location     Type
  6971 ;;                  1    wreg      void 
  6972 ;; Registers used:
  6973 ;;		wreg, fsr1l, fsr1h, status,2, status,0, pclath, cstack
  6974 ;; Tracked objects:
  6975 ;;		On entry : 0/0
  6976 ;;		On exit  : 0/0
  6977 ;;		Unchanged: 0/0
  6978 ;; Data sizes:     COMMON   BANK0   BANK1   BANK2   BANK3   BANK4   BANK5   BANK6   BANK7   BANK8   BANK9  BANK10  BANK1
      +1  BANK12  BANK13  BANK14  BANK15  BANK16  BANK17  BANK18  BANK19  BANK20  BANK21  BANK22  BANK23  BANK24  BANK25
  6979 ;;      Params:         0       0       0       0       0       0       0       0       0       0       0       0       
      +0       0       0       0       0       0       0       0       0       0       0       0       0       0       0
  6980 ;;      Locals:         0       7       0       0       0       0       0       0       0       0       0       0       
      +0       0       0       0       0       0       0       0       0       0       0       0       0       0       0
  6981 ;;      Temps:          0       2       0       0       0       0       0       0       0       0       0       0       
      +0       0       0       0       0       0       0       0       0       0       0       0       0       0       0
  6982 ;;      Totals:         0       9       0       0       0       0       0       0       0       0       0       0       
      +0       0       0       0       0       0       0       0       0       0       0       0       0       0       0
  6983 ;;Total ram usage:        9 bytes
  6984 ;; Hardware stack levels used: 1
  6985 ;; Hardware stack levels required when called: 6
  6986 ;; This function calls:
  6987 ;;		_CapTouch_ADC_Sample1
  6988 ;;		_CapTouch_ADC_Sample2
  6989 ;;		_CapTouch_ADC_Sleep
  6990 ;;		_CapTouch_ADC_Wakeup
  6991 ;;		_CapTouch_IIR_Butterworth
  6992 ;;		_CapTouch_Precharge_Button
  6993 ;;		_CapTouch_Precharge_SH_Cap
  6994 ;; This function is called by:
  6995 ;;		_CapTouch_Calibration
  6996 ;;		_CapTouch_Response
  6997 ;; This function uses a non-reentrant model
  6998 ;;
  6999                           
  7000     030B                     _CapTouch_Read_Delta:	
  7001                           ;psect for function _CapTouch_Read_Delta
  7002                           
  7003                           
  7004                           ;incstack = 0
  7005                           ; Regs used in _CapTouch_Read_Delta: [wreg+fsr1l+fsr1h+status,2+status,0+pclath+cstack]
  7006                           ;CapTouch_Read_Delta@current_channel stored from wreg
  7007     030B  0020               	movlb	0	; select bank0
  7008     030C  00C8               	movwf	CapTouch_Read_Delta@current_channel
  7009     030D                     l2793:
  7010                           
  7011                           ;captouch.c: 174: INTCON&=~(1<<7);
  7012     030D  307F               	movlw	127
  7013     030E  00C0               	movwf	??_CapTouch_Read_Delta
  7014     030F  0840               	movf	??_CapTouch_Read_Delta,w
  7015     0310  058B               	andwf	11,f	;volatile
  7016     0311                     l2795:
  7017                           
  7018                           ;captouch.c: 175: CapTouch_ADC_Wakeup();
  7019     0311  318D  250C  3183   	fcall	_CapTouch_ADC_Wakeup
  7020     0314                     l2797:
  7021                           
  7022                           ;captouch.c: 176: CapTouch_Precharge_SH_Cap(current_channel);
  7023     0314  0020               	movlb	0	; select bank0
  7024     0315  0848               	movf	CapTouch_Read_Delta@current_channel,w
  7025     0316  318E  2642  3183   	fcall	_CapTouch_Precharge_SH_Cap
  7026     0319                     l2799:
  7027                           
  7028                           ;captouch.c: 177: CapTouch_ADC_Sample1(current_channel);
  7029     0319  0020               	movlb	0	; select bank0
  7030     031A  0848               	movf	CapTouch_Read_Delta@current_channel,w
  7031     031B  318E  267B  3183   	fcall	_CapTouch_ADC_Sample1
  7032     031E                     l2801:
  7033                           
  7034                           ;captouch.c: 178: uint32_t temp=0;
  7035     031E  3000               	movlw	0
  7036     031F  0020               	movlb	0	; select bank0
  7037     0320  00C7               	movwf	CapTouch_Read_Delta@temp+3
  7038     0321  3000               	movlw	0
  7039     0322  00C6               	movwf	CapTouch_Read_Delta@temp+2
  7040     0323  3000               	movlw	0
  7041     0324  00C5               	movwf	CapTouch_Read_Delta@temp+1
  7042     0325  3000               	movlw	0
  7043     0326  00C4               	movwf	CapTouch_Read_Delta@temp
  7044     0327                     l2803:
  7045                           
  7046                           ;captouch.c: 179: CapTouch_Precharge_Button(current_channel);
  7047     0327  0848               	movf	CapTouch_Read_Delta@current_channel,w
  7048     0328  318D  25F4  3183   	fcall	_CapTouch_Precharge_Button
  7049     032B                     l2805:
  7050                           
  7051                           ;captouch.c: 180: CapTouch_ADC_Sample2(current_channel);
  7052     032B  0020               	movlb	0	; select bank0
  7053     032C  0848               	movf	CapTouch_Read_Delta@current_channel,w
  7054     032D  318E  2699  3183   	fcall	_CapTouch_ADC_Sample2
  7055     0330                     l2807:
  7056                           
  7057                           ;captouch.c: 181: temp+=CapTouch.RawADC2[current_channel];
  7058     0330  0020               	movlb	0	; select bank0
  7059     0331  3548               	lslf	CapTouch_Read_Delta@current_channel,w
  7060     0332  3E2B               	addlw	(low ((_CapTouch| (0+256)+11)))& (0+255)
  7061     0333  0086               	movwf	6
  7062     0334  3001               	movlw	1	; select bank2/3
  7063     0335  0087               	movwf	7
  7064     0336  3F40               	moviw [0]fsr1
  7065     0337  00C0               	movwf	??_CapTouch_Read_Delta
  7066     0338  3F41               	moviw [1]fsr1
  7067     0339  00C1               	movwf	??_CapTouch_Read_Delta+1
  7068     033A  0840               	movf	??_CapTouch_Read_Delta,w
  7069     033B  07C4               	addwf	CapTouch_Read_Delta@temp,f
  7070     033C  0841               	movf	??_CapTouch_Read_Delta+1,w
  7071     033D  3DC5               	addwfc	CapTouch_Read_Delta@temp+1,f
  7072     033E  3000               	movlw	0
  7073     033F  3DC6               	addwfc	CapTouch_Read_Delta@temp+2,f
  7074     0340  3DC7               	addwfc	CapTouch_Read_Delta@temp+3,f
  7075                           
  7076                           ;captouch.c: 182: CapTouch_Precharge_Button(current_channel);
  7077     0341  0848               	movf	CapTouch_Read_Delta@current_channel,w
  7078     0342  318D  25F4  3183   	fcall	_CapTouch_Precharge_Button
  7079                           
  7080                           ;captouch.c: 183: CapTouch_ADC_Sample2(current_channel);
  7081     0345  0020               	movlb	0	; select bank0
  7082     0346  0848               	movf	CapTouch_Read_Delta@current_channel,w
  7083     0347  318E  2699  3183   	fcall	_CapTouch_ADC_Sample2
  7084     034A                     l2809:
  7085                           
  7086                           ;captouch.c: 184: temp+=CapTouch.RawADC2[current_channel];
  7087     034A  0020               	movlb	0	; select bank0
  7088     034B  3548               	lslf	CapTouch_Read_Delta@current_channel,w
  7089     034C  3E2B               	addlw	(low ((_CapTouch| (0+256)+11)))& (0+255)
  7090     034D  0086               	movwf	6
  7091     034E  3001               	movlw	1	; select bank2/3
  7092     034F  0087               	movwf	7
  7093     0350  3F40               	moviw [0]fsr1
  7094     0351  00C0               	movwf	??_CapTouch_Read_Delta
  7095     0352  3F41               	moviw [1]fsr1
  7096     0353  00C1               	movwf	??_CapTouch_Read_Delta+1
  7097     0354  0840               	movf	??_CapTouch_Read_Delta,w
  7098     0355  07C4               	addwf	CapTouch_Read_Delta@temp,f
  7099     0356  0841               	movf	??_CapTouch_Read_Delta+1,w
  7100     0357  3DC5               	addwfc	CapTouch_Read_Delta@temp+1,f
  7101     0358  3000               	movlw	0
  7102     0359  3DC6               	addwfc	CapTouch_Read_Delta@temp+2,f
  7103     035A  3DC7               	addwfc	CapTouch_Read_Delta@temp+3,f
  7104     035B                     l2811:
  7105                           
  7106                           ;captouch.c: 185: CapTouch_Precharge_Button(current_channel);
  7107     035B  0848               	movf	CapTouch_Read_Delta@current_channel,w
  7108     035C  318D  25F4  3183   	fcall	_CapTouch_Precharge_Button
  7109     035F                     l2813:
  7110                           
  7111                           ;captouch.c: 186: CapTouch_ADC_Sample2(current_channel);
  7112     035F  0020               	movlb	0	; select bank0
  7113     0360  0848               	movf	CapTouch_Read_Delta@current_channel,w
  7114     0361  318E  2699  3183   	fcall	_CapTouch_ADC_Sample2
  7115     0364                     l2815:
  7116                           
  7117                           ;captouch.c: 187: temp+=CapTouch.RawADC2[current_channel];
  7118     0364  0020               	movlb	0	; select bank0
  7119     0365  3548               	lslf	CapTouch_Read_Delta@current_channel,w
  7120     0366  3E2B               	addlw	(low ((_CapTouch| (0+256)+11)))& (0+255)
  7121     0367  0086               	movwf	6
  7122     0368  3001               	movlw	1	; select bank2/3
  7123     0369  0087               	movwf	7
  7124     036A  3F40               	moviw [0]fsr1
  7125     036B  00C0               	movwf	??_CapTouch_Read_Delta
  7126     036C  3F41               	moviw [1]fsr1
  7127     036D  00C1               	movwf	??_CapTouch_Read_Delta+1
  7128     036E  0840               	movf	??_CapTouch_Read_Delta,w
  7129     036F  07C4               	addwf	CapTouch_Read_Delta@temp,f
  7130     0370  0841               	movf	??_CapTouch_Read_Delta+1,w
  7131     0371  3DC5               	addwfc	CapTouch_Read_Delta@temp+1,f
  7132     0372  3000               	movlw	0
  7133     0373  3DC6               	addwfc	CapTouch_Read_Delta@temp+2,f
  7134     0374  3DC7               	addwfc	CapTouch_Read_Delta@temp+3,f
  7135     0375                     l2817:
  7136                           
  7137                           ;captouch.c: 188: CapTouch.RawADC2[current_channel]=temp;
  7138     0375  3548               	lslf	CapTouch_Read_Delta@current_channel,w
  7139     0376  3E2B               	addlw	(low ((_CapTouch| (0+256)+11)))& (0+255)
  7140     0377  0086               	movwf	6
  7141     0378  3001               	movlw	1	; select bank2/3
  7142     0379  0087               	movwf	7
  7143     037A  0844               	movf	CapTouch_Read_Delta@temp,w
  7144     037B  3FC0               	movwi [0]fsr1
  7145     037C  0845               	movf	CapTouch_Read_Delta@temp+1,w
  7146     037D  3FC1               	movwi [1]fsr1
  7147     037E                     l2819:
  7148                           
  7149                           ;captouch.c: 189: CapTouch_ADC_Sleep();
  7150     037E  318D  2513  3183   	fcall	_CapTouch_ADC_Sleep
  7151     0381                     l2821:
  7152                           
  7153                           ;captouch.c: 190: INTCON|=(1<<7);
  7154     0381  178B               	bsf	11,7	;volatile
  7155     0382                     l2823:
  7156                           
  7157                           ;captouch.c: 191: int delta=CapTouch.RawADC1[current_channel];
  7158     0382  0020               	movlb	0	; select bank0
  7159     0383  3548               	lslf	CapTouch_Read_Delta@current_channel,w
  7160     0384  3E27               	addlw	(low ((_CapTouch| (0+256)+7)))& (0+255)
  7161     0385  0086               	movwf	6
  7162     0386  3001               	movlw	1	; select bank2/3
  7163     0387  0087               	movwf	7
  7164     0388  3F40               	moviw [0]fsr1
  7165     0389  00C2               	movwf	CapTouch_Read_Delta@delta
  7166     038A  3F41               	moviw [1]fsr1
  7167     038B  00C3               	movwf	CapTouch_Read_Delta@delta+1
  7168     038C                     l2825:
  7169                           
  7170                           ;captouch.c: 192: delta-=CapTouch.RawADC2[current_channel];
  7171     038C  3548               	lslf	CapTouch_Read_Delta@current_channel,w
  7172     038D  3E2B               	addlw	(low ((_CapTouch| (0+256)+11)))& (0+255)
  7173     038E  0086               	movwf	6
  7174     038F  3001               	movlw	1	; select bank2/3
  7175     0390  0087               	movwf	7
  7176     0391  3F40               	moviw [0]fsr1
  7177     0392  00C0               	movwf	??_CapTouch_Read_Delta
  7178     0393  3F41               	moviw [1]fsr1
  7179     0394  00C1               	movwf	??_CapTouch_Read_Delta+1
  7180     0395  0840               	movf	??_CapTouch_Read_Delta,w
  7181     0396  02C2               	subwf	CapTouch_Read_Delta@delta,f
  7182     0397  0841               	movf	??_CapTouch_Read_Delta+1,w
  7183     0398  3BC3               	subwfb	CapTouch_Read_Delta@delta+1,f
  7184     0399                     l2827:
  7185                           
  7186                           ;captouch.c: 194: CapTouch.RawDiffADC[current_channel]=CapTouch_IIR_Butterworth(current_
      +                          channel,delta);
  7187     0399  0842               	movf	CapTouch_Read_Delta@delta,w
  7188     039A  00AF               	movwf	CapTouch_IIR_Butterworth@input
  7189     039B  0843               	movf	CapTouch_Read_Delta@delta+1,w
  7190     039C  00B0               	movwf	CapTouch_IIR_Butterworth@input+1
  7191     039D  0D89               	rlf	9,f
  7192     039E  3B89               	subwfb	9,f
  7193     039F  0989               	comf	9,f
  7194     03A0  00B1               	movwf	CapTouch_IIR_Butterworth@input+2
  7195     03A1  00B2               	movwf	CapTouch_IIR_Butterworth@input+3
  7196     03A2  0848               	movf	CapTouch_Read_Delta@current_channel,w
  7197     03A3  3182  223D  3183   	fcall	_CapTouch_IIR_Butterworth
  7198     03A6  0020               	movlb	0	; select bank0
  7199     03A7  3548               	lslf	CapTouch_Read_Delta@current_channel,w
  7200     03A8  3E2F               	addlw	(low ((_CapTouch| (0+256)+15)))& (0+255)
  7201     03A9  0086               	movwf	6
  7202     03AA  3001               	movlw	1	; select bank2/3
  7203     03AB  0087               	movwf	7
  7204     03AC  082F               	movf	?_CapTouch_IIR_Butterworth,w
  7205     03AD  3FC0               	movwi [0]fsr1
  7206     03AE  0830               	movf	?_CapTouch_IIR_Butterworth+1,w
  7207     03AF  3FC1               	movwi [1]fsr1
  7208     03B0                     l175:
  7209     03B0  0008               	return
  7210     03B1                     __end_of_CapTouch_Read_Delta:
  7211                           
  7212                           	psect	text25
  7213     0E42                     __ptext25:	
  7214 ;; *************** function _CapTouch_Precharge_SH_Cap *****************
  7215 ;; Defined at:
  7216 ;;		line 150 in file "captouch.c"
  7217 ;; Parameters:    Size  Location     Type
  7218 ;;  current_chan    1    wreg     unsigned char 
  7219 ;; Auto vars:     Size  Location     Type
  7220 ;;  current_chan    1    6[BANK0 ] unsigned char 
  7221 ;; Return value:  Size  Location     Type
  7222 ;;                  1    wreg      void 
  7223 ;; Registers used:
  7224 ;;		wreg, fsr1l, fsr1h, status,2, status,0, pclath, cstack
  7225 ;; Tracked objects:
  7226 ;;		On entry : 0/0
  7227 ;;		On exit  : 0/0
  7228 ;;		Unchanged: 0/0
  7229 ;; Data sizes:     COMMON   BANK0   BANK1   BANK2   BANK3   BANK4   BANK5   BANK6   BANK7   BANK8   BANK9  BANK10  BANK1
      +1  BANK12  BANK13  BANK14  BANK15  BANK16  BANK17  BANK18  BANK19  BANK20  BANK21  BANK22  BANK23  BANK24  BANK25
  7230 ;;      Params:         0       0       0       0       0       0       0       0       0       0       0       0       
      +0       0       0       0       0       0       0       0       0       0       0       0       0       0       0
  7231 ;;      Locals:         0       1       0       0       0       0       0       0       0       0       0       0       
      +0       0       0       0       0       0       0       0       0       0       0       0       0       0       0
  7232 ;;      Temps:          0       0       0       0       0       0       0       0       0       0       0       0       
      +0       0       0       0       0       0       0       0       0       0       0       0       0       0       0
  7233 ;;      Totals:         0       1       0       0       0       0       0       0       0       0       0       0       
      +0       0       0       0       0       0       0       0       0       0       0       0       0       0       0
  7234 ;;Total ram usage:        1 bytes
  7235 ;; Hardware stack levels used: 1
  7236 ;; Hardware stack levels required when called: 5
  7237 ;; This function calls:
  7238 ;;		_CapTouch_ADC_Sample
  7239 ;;		_CapTouch_Set_Key_Pin_Output
  7240 ;;		_CapTouch_Set_Key_Pin_Output_Low
  7241 ;; This function is called by:
  7242 ;;		_CapTouch_Read_Delta
  7243 ;; This function uses a non-reentrant model
  7244 ;;
  7245                           
  7246     0E42                     _CapTouch_Precharge_SH_Cap:	
  7247                           ;psect for function _CapTouch_Precharge_SH_Cap
  7248                           
  7249                           
  7250                           ;incstack = 0
  7251                           ; Regs used in _CapTouch_Precharge_SH_Cap: [wreg+fsr1l+fsr1h+status,2+status,0+pclath+cs
      +                          tack]
  7252                           ;CapTouch_Precharge_SH_Cap@current_channel stored from wreg
  7253     0E42  0020               	movlb	0	; select bank0
  7254     0E43  00A6               	movwf	CapTouch_Precharge_SH_Cap@current_channel
  7255     0E44                     l2779:
  7256                           
  7257                           ;captouch.c: 151: CapTouch_Set_Key_Pin_Output(CapTouch_Pins[current_channel]);
  7258     0E44  0826               	movf	CapTouch_Precharge_SH_Cap@current_channel,w
  7259     0E45  3E6B               	addlw	(low (_CapTouch_Pins| 0))& (0+255)
  7260     0E46  0086               	movwf	6
  7261     0E47  0187               	clrf	7
  7262     0E48  0801               	movf	1,w
  7263     0E49  318E  26B7  318E   	fcall	_CapTouch_Set_Key_Pin_Output
  7264                           
  7265                           ;captouch.c: 152: CapTouch_Set_Key_Pin_Output_Low(CapTouch_Pins[current_channel]);
  7266     0E4C  0020               	movlb	0	; select bank0
  7267     0E4D  0826               	movf	CapTouch_Precharge_SH_Cap@current_channel,w
  7268     0E4E  3E6B               	addlw	(low (_CapTouch_Pins| 0))& (0+255)
  7269     0E4F  0086               	movwf	6
  7270     0E50  0187               	clrf	7
  7271     0E51  0801               	movf	1,w
  7272     0E52  318D  25A8  318E   	fcall	_CapTouch_Set_Key_Pin_Output_Low
  7273     0E55                     l2781:
  7274                           
  7275                           ;captouch.c: 153: CapTouch_ADC_Sample(0x3F);
  7276     0E55  303F               	movlw	63
  7277     0E56  318F  2715  318E   	fcall	_CapTouch_ADC_Sample
  7278     0E59                     l2783:
  7279                           
  7280                           ;captouch.c: 154: CapTouch_ADC_Sample(0x3F);
  7281     0E59  303F               	movlw	63
  7282     0E5A  318F  2715  318E   	fcall	_CapTouch_ADC_Sample
  7283     0E5D                     l163:
  7284     0E5D  0008               	return
  7285     0E5E                     __end_of_CapTouch_Precharge_SH_Cap:
  7286                           
  7287                           	psect	text26
  7288     0DA8                     __ptext26:	
  7289 ;; *************** function _CapTouch_Set_Key_Pin_Output_Low *****************
  7290 ;; Defined at:
  7291 ;;		line 114 in file "captouch.c"
  7292 ;; Parameters:    Size  Location     Type
  7293 ;;  current_chan    1    wreg     unsigned char 
  7294 ;; Auto vars:     Size  Location     Type
  7295 ;;  current_chan    1    2[BANK0 ] unsigned char 
  7296 ;; Return value:  Size  Location     Type
  7297 ;;                  1    wreg      void 
  7298 ;; Registers used:
  7299 ;;		wreg, status,2, status,0
  7300 ;; Tracked objects:
  7301 ;;		On entry : 0/0
  7302 ;;		On exit  : 0/0
  7303 ;;		Unchanged: 0/0
  7304 ;; Data sizes:     COMMON   BANK0   BANK1   BANK2   BANK3   BANK4   BANK5   BANK6   BANK7   BANK8   BANK9  BANK10  BANK1
      +1  BANK12  BANK13  BANK14  BANK15  BANK16  BANK17  BANK18  BANK19  BANK20  BANK21  BANK22  BANK23  BANK24  BANK25
  7305 ;;      Params:         0       0       0       0       0       0       0       0       0       0       0       0       
      +0       0       0       0       0       0       0       0       0       0       0       0       0       0       0
  7306 ;;      Locals:         0       1       0       0       0       0       0       0       0       0       0       0       
      +0       0       0       0       0       0       0       0       0       0       0       0       0       0       0
  7307 ;;      Temps:          0       2       0       0       0       0       0       0       0       0       0       0       
      +0       0       0       0       0       0       0       0       0       0       0       0       0       0       0
  7308 ;;      Totals:         0       3       0       0       0       0       0       0       0       0       0       0       
      +0       0       0       0       0       0       0       0       0       0       0       0       0       0       0
  7309 ;;Total ram usage:        3 bytes
  7310 ;; Hardware stack levels used: 1
  7311 ;; Hardware stack levels required when called: 4
  7312 ;; This function calls:
  7313 ;;		Nothing
  7314 ;; This function is called by:
  7315 ;;		_CapTouch_Precharge_SH_Cap
  7316 ;; This function uses a non-reentrant model
  7317 ;;
  7318                           
  7319     0DA8                     _CapTouch_Set_Key_Pin_Output_Low:	
  7320                           ;psect for function _CapTouch_Set_Key_Pin_Output_Low
  7321                           
  7322                           
  7323                           ;incstack = 0
  7324                           ; Regs used in _CapTouch_Set_Key_Pin_Output_Low: [wreg+status,2+status,0]
  7325                           ;CapTouch_Set_Key_Pin_Output_Low@current_channel stored from wreg
  7326     0DA8  0020               	movlb	0	; select bank0
  7327     0DA9  00A2               	movwf	CapTouch_Set_Key_Pin_Output_Low@current_channel
  7328     0DAA                     l2697:
  7329                           
  7330                           ;captouch.c: 115: LATA &=~(1<<current_channel);
  7331     0DAA  3001               	movlw	1
  7332     0DAB  00A0               	movwf	??_CapTouch_Set_Key_Pin_Output_Low
  7333     0DAC  0A22               	incf	CapTouch_Set_Key_Pin_Output_Low@current_channel,w
  7334     0DAD  2DAF               	goto	u1984
  7335     0DAE                     u1985:
  7336     0DAE  35A0               	lslf	??_CapTouch_Set_Key_Pin_Output_Low,f
  7337     0DAF                     u1984:
  7338     0DAF  0B89               	decfsz	9,f
  7339     0DB0  2DAE               	goto	u1985
  7340     0DB1  0820               	movf	??_CapTouch_Set_Key_Pin_Output_Low,w
  7341     0DB2  3AFF               	xorlw	255
  7342     0DB3  00A1               	movwf	??_CapTouch_Set_Key_Pin_Output_Low+1
  7343     0DB4  0821               	movf	??_CapTouch_Set_Key_Pin_Output_Low+1,w
  7344     0DB5  0022               	movlb	2	; select bank2
  7345     0DB6  058C               	andwf	12,f	;volatile
  7346     0DB7                     l139:
  7347     0DB7  0008               	return
  7348     0DB8                     __end_of_CapTouch_Set_Key_Pin_Output_Low:
  7349                           
  7350                           	psect	text27
  7351     0DF4                     __ptext27:	
  7352 ;; *************** function _CapTouch_Precharge_Button *****************
  7353 ;; Defined at:
  7354 ;;		line 162 in file "captouch.c"
  7355 ;; Parameters:    Size  Location     Type
  7356 ;;  current_chan    1    wreg     unsigned char 
  7357 ;; Auto vars:     Size  Location     Type
  7358 ;;  current_chan    1    6[BANK0 ] unsigned char 
  7359 ;; Return value:  Size  Location     Type
  7360 ;;                  1    wreg      void 
  7361 ;; Registers used:
  7362 ;;		wreg, fsr1l, fsr1h, status,2, status,0, pclath, cstack
  7363 ;; Tracked objects:
  7364 ;;		On entry : 0/0
  7365 ;;		On exit  : 0/0
  7366 ;;		Unchanged: 0/0
  7367 ;; Data sizes:     COMMON   BANK0   BANK1   BANK2   BANK3   BANK4   BANK5   BANK6   BANK7   BANK8   BANK9  BANK10  BANK1
      +1  BANK12  BANK13  BANK14  BANK15  BANK16  BANK17  BANK18  BANK19  BANK20  BANK21  BANK22  BANK23  BANK24  BANK25
  7368 ;;      Params:         0       0       0       0       0       0       0       0       0       0       0       0       
      +0       0       0       0       0       0       0       0       0       0       0       0       0       0       0
  7369 ;;      Locals:         0       1       0       0       0       0       0       0       0       0       0       0       
      +0       0       0       0       0       0       0       0       0       0       0       0       0       0       0
  7370 ;;      Temps:          0       0       0       0       0       0       0       0       0       0       0       0       
      +0       0       0       0       0       0       0       0       0       0       0       0       0       0       0
  7371 ;;      Totals:         0       1       0       0       0       0       0       0       0       0       0       0       
      +0       0       0       0       0       0       0       0       0       0       0       0       0       0       0
  7372 ;;Total ram usage:        1 bytes
  7373 ;; Hardware stack levels used: 1
  7374 ;; Hardware stack levels required when called: 5
  7375 ;; This function calls:
  7376 ;;		_CapTouch_ADC_Sample
  7377 ;;		_CapTouch_Set_Key_Pin_Output
  7378 ;;		_CapTouch_Set_Key_Pin_Output_High
  7379 ;; This function is called by:
  7380 ;;		_CapTouch_Read_Delta
  7381 ;; This function uses a non-reentrant model
  7382 ;;
  7383                           
  7384     0DF4                     _CapTouch_Precharge_Button:	
  7385                           ;psect for function _CapTouch_Precharge_Button
  7386                           
  7387                           
  7388                           ;incstack = 0
  7389                           ; Regs used in _CapTouch_Precharge_Button: [wreg+fsr1l+fsr1h+status,2+status,0+pclath+cs
      +                          tack]
  7390                           ;CapTouch_Precharge_Button@current_channel stored from wreg
  7391     0DF4  0020               	movlb	0	; select bank0
  7392     0DF5  00A6               	movwf	CapTouch_Precharge_Button@current_channel
  7393     0DF6                     l2787:
  7394                           
  7395                           ;captouch.c: 163: CapTouch_Set_Key_Pin_Output(CapTouch_Pins[current_channel]);
  7396     0DF6  0826               	movf	CapTouch_Precharge_Button@current_channel,w
  7397     0DF7  3E6B               	addlw	(low (_CapTouch_Pins| 0))& (0+255)
  7398     0DF8  0086               	movwf	6
  7399     0DF9  0187               	clrf	7
  7400     0DFA  0801               	movf	1,w
  7401     0DFB  318E  26B7  318D   	fcall	_CapTouch_Set_Key_Pin_Output
  7402                           
  7403                           ;captouch.c: 164: CapTouch_Set_Key_Pin_Output_High(CapTouch_Pins[current_channel]);
  7404     0DFE  0020               	movlb	0	; select bank0
  7405     0DFF  0826               	movf	CapTouch_Precharge_Button@current_channel,w
  7406     0E00  3E6B               	addlw	(low (_CapTouch_Pins| 0))& (0+255)
  7407     0E01  0086               	movwf	6
  7408     0E02  0187               	clrf	7
  7409     0E03  0801               	movf	1,w
  7410     0E04  318D  258A  318D   	fcall	_CapTouch_Set_Key_Pin_Output_High
  7411     0E07                     l2789:
  7412                           
  7413                           ;captouch.c: 165: CapTouch_ADC_Sample(0x3C);
  7414     0E07  303C               	movlw	60
  7415     0E08  318F  2715  318D   	fcall	_CapTouch_ADC_Sample
  7416     0E0B                     l169:
  7417     0E0B  0008               	return
  7418     0E0C                     __end_of_CapTouch_Precharge_Button:
  7419                           
  7420                           	psect	text28
  7421     0D8A                     __ptext28:	
  7422 ;; *************** function _CapTouch_Set_Key_Pin_Output_High *****************
  7423 ;; Defined at:
  7424 ;;		line 118 in file "captouch.c"
  7425 ;; Parameters:    Size  Location     Type
  7426 ;;  current_chan    1    wreg     unsigned char 
  7427 ;; Auto vars:     Size  Location     Type
  7428 ;;  current_chan    1    2[BANK0 ] unsigned char 
  7429 ;; Return value:  Size  Location     Type
  7430 ;;                  1    wreg      void 
  7431 ;; Registers used:
  7432 ;;		wreg, status,2, status,0
  7433 ;; Tracked objects:
  7434 ;;		On entry : 0/0
  7435 ;;		On exit  : 0/0
  7436 ;;		Unchanged: 0/0
  7437 ;; Data sizes:     COMMON   BANK0   BANK1   BANK2   BANK3   BANK4   BANK5   BANK6   BANK7   BANK8   BANK9  BANK10  BANK1
      +1  BANK12  BANK13  BANK14  BANK15  BANK16  BANK17  BANK18  BANK19  BANK20  BANK21  BANK22  BANK23  BANK24  BANK25
  7438 ;;      Params:         0       0       0       0       0       0       0       0       0       0       0       0       
      +0       0       0       0       0       0       0       0       0       0       0       0       0       0       0
  7439 ;;      Locals:         0       1       0       0       0       0       0       0       0       0       0       0       
      +0       0       0       0       0       0       0       0       0       0       0       0       0       0       0
  7440 ;;      Temps:          0       2       0       0       0       0       0       0       0       0       0       0       
      +0       0       0       0       0       0       0       0       0       0       0       0       0       0       0
  7441 ;;      Totals:         0       3       0       0       0       0       0       0       0       0       0       0       
      +0       0       0       0       0       0       0       0       0       0       0       0       0       0       0
  7442 ;;Total ram usage:        3 bytes
  7443 ;; Hardware stack levels used: 1
  7444 ;; Hardware stack levels required when called: 4
  7445 ;; This function calls:
  7446 ;;		Nothing
  7447 ;; This function is called by:
  7448 ;;		_CapTouch_Precharge_Button
  7449 ;; This function uses a non-reentrant model
  7450 ;;
  7451                           
  7452     0D8A                     _CapTouch_Set_Key_Pin_Output_High:	
  7453                           ;psect for function _CapTouch_Set_Key_Pin_Output_High
  7454                           
  7455                           
  7456                           ;incstack = 0
  7457                           ; Regs used in _CapTouch_Set_Key_Pin_Output_High: [wreg+status,2+status,0]
  7458                           ;CapTouch_Set_Key_Pin_Output_High@current_channel stored from wreg
  7459     0D8A  0020               	movlb	0	; select bank0
  7460     0D8B  00A2               	movwf	CapTouch_Set_Key_Pin_Output_High@current_channel
  7461     0D8C                     l2699:
  7462                           
  7463                           ;captouch.c: 119: LATA |= (1<<current_channel);
  7464     0D8C  3001               	movlw	1
  7465     0D8D  00A0               	movwf	??_CapTouch_Set_Key_Pin_Output_High
  7466     0D8E  0A22               	incf	CapTouch_Set_Key_Pin_Output_High@current_channel,w
  7467     0D8F  2D91               	goto	u1994
  7468     0D90                     u1995:
  7469     0D90  35A0               	lslf	??_CapTouch_Set_Key_Pin_Output_High,f
  7470     0D91                     u1994:
  7471     0D91  0B89               	decfsz	9,f
  7472     0D92  2D90               	goto	u1995
  7473     0D93  0820               	movf	??_CapTouch_Set_Key_Pin_Output_High,w
  7474     0D94  00A1               	movwf	??_CapTouch_Set_Key_Pin_Output_High+1
  7475     0D95  0821               	movf	??_CapTouch_Set_Key_Pin_Output_High+1,w
  7476     0D96  0022               	movlb	2	; select bank2
  7477     0D97  048C               	iorwf	12,f	;volatile
  7478     0D98                     l142:
  7479     0D98  0008               	return
  7480     0D99                     __end_of_CapTouch_Set_Key_Pin_Output_High:
  7481                           
  7482                           	psect	text29
  7483     0EB7                     __ptext29:	
  7484 ;; *************** function _CapTouch_Set_Key_Pin_Output *****************
  7485 ;; Defined at:
  7486 ;;		line 109 in file "captouch.c"
  7487 ;; Parameters:    Size  Location     Type
  7488 ;;  current_chan    1    wreg     unsigned char 
  7489 ;; Auto vars:     Size  Location     Type
  7490 ;;  current_chan    1    2[BANK0 ] unsigned char 
  7491 ;; Return value:  Size  Location     Type
  7492 ;;                  1    wreg      void 
  7493 ;; Registers used:
  7494 ;;		wreg, status,2, status,0
  7495 ;; Tracked objects:
  7496 ;;		On entry : 0/0
  7497 ;;		On exit  : 0/0
  7498 ;;		Unchanged: 0/0
  7499 ;; Data sizes:     COMMON   BANK0   BANK1   BANK2   BANK3   BANK4   BANK5   BANK6   BANK7   BANK8   BANK9  BANK10  BANK1
      +1  BANK12  BANK13  BANK14  BANK15  BANK16  BANK17  BANK18  BANK19  BANK20  BANK21  BANK22  BANK23  BANK24  BANK25
  7500 ;;      Params:         0       0       0       0       0       0       0       0       0       0       0       0       
      +0       0       0       0       0       0       0       0       0       0       0       0       0       0       0
  7501 ;;      Locals:         0       1       0       0       0       0       0       0       0       0       0       0       
      +0       0       0       0       0       0       0       0       0       0       0       0       0       0       0
  7502 ;;      Temps:          0       2       0       0       0       0       0       0       0       0       0       0       
      +0       0       0       0       0       0       0       0       0       0       0       0       0       0       0
  7503 ;;      Totals:         0       3       0       0       0       0       0       0       0       0       0       0       
      +0       0       0       0       0       0       0       0       0       0       0       0       0       0       0
  7504 ;;Total ram usage:        3 bytes
  7505 ;; Hardware stack levels used: 1
  7506 ;; Hardware stack levels required when called: 4
  7507 ;; This function calls:
  7508 ;;		Nothing
  7509 ;; This function is called by:
  7510 ;;		_CapTouch_Precharge_SH_Cap
  7511 ;;		_CapTouch_Precharge_Button
  7512 ;; This function uses a non-reentrant model
  7513 ;;
  7514                           
  7515     0EB7                     _CapTouch_Set_Key_Pin_Output:	
  7516                           ;psect for function _CapTouch_Set_Key_Pin_Output
  7517                           
  7518                           
  7519                           ;incstack = 0
  7520                           ; Regs used in _CapTouch_Set_Key_Pin_Output: [wreg+status,2+status,0]
  7521                           ;CapTouch_Set_Key_Pin_Output@current_channel stored from wreg
  7522     0EB7  0020               	movlb	0	; select bank0
  7523     0EB8  00A2               	movwf	CapTouch_Set_Key_Pin_Output@current_channel
  7524     0EB9                     l2695:
  7525                           
  7526                           ;captouch.c: 110: ANSELA&=~(1<<current_channel);
  7527     0EB9  3001               	movlw	1
  7528     0EBA  00A0               	movwf	??_CapTouch_Set_Key_Pin_Output
  7529     0EBB  0A22               	incf	CapTouch_Set_Key_Pin_Output@current_channel,w
  7530     0EBC  2EBE               	goto	u1964
  7531     0EBD                     u1965:
  7532     0EBD  35A0               	lslf	??_CapTouch_Set_Key_Pin_Output,f
  7533     0EBE                     u1964:
  7534     0EBE  0B89               	decfsz	9,f
  7535     0EBF  2EBD               	goto	u1965
  7536     0EC0  0820               	movf	??_CapTouch_Set_Key_Pin_Output,w
  7537     0EC1  3AFF               	xorlw	255
  7538     0EC2  00A1               	movwf	??_CapTouch_Set_Key_Pin_Output+1
  7539     0EC3  0821               	movf	??_CapTouch_Set_Key_Pin_Output+1,w
  7540     0EC4  0023               	movlb	3	; select bank3
  7541     0EC5  058C               	andwf	12,f	;volatile
  7542                           
  7543                           ;captouch.c: 111: TRISA &=~(1<<current_channel);
  7544     0EC6  3001               	movlw	1
  7545     0EC7  0020               	movlb	0	; select bank0
  7546     0EC8  00A0               	movwf	??_CapTouch_Set_Key_Pin_Output
  7547     0EC9  0A22               	incf	CapTouch_Set_Key_Pin_Output@current_channel,w
  7548     0ECA  2ECC               	goto	u1974
  7549     0ECB                     u1975:
  7550     0ECB  35A0               	lslf	??_CapTouch_Set_Key_Pin_Output,f
  7551     0ECC                     u1974:
  7552     0ECC  0B89               	decfsz	9,f
  7553     0ECD  2ECB               	goto	u1975
  7554     0ECE  0820               	movf	??_CapTouch_Set_Key_Pin_Output,w
  7555     0ECF  3AFF               	xorlw	255
  7556     0ED0  00A1               	movwf	??_CapTouch_Set_Key_Pin_Output+1
  7557     0ED1  0821               	movf	??_CapTouch_Set_Key_Pin_Output+1,w
  7558     0ED2  0021               	movlb	1	; select bank1
  7559     0ED3  058C               	andwf	12,f	;volatile
  7560     0ED4                     l136:
  7561     0ED4  0008               	return
  7562     0ED5                     __end_of_CapTouch_Set_Key_Pin_Output:
  7563                           
  7564                           	psect	text30
  7565     023D                     __ptext30:	
  7566 ;; *************** function _CapTouch_IIR_Butterworth *****************
  7567 ;; Defined at:
  7568 ;;		line 92 in file "captouch.c"
  7569 ;; Parameters:    Size  Location     Type
  7570 ;;  channel         1    wreg     unsigned char 
  7571 ;;  input           4   15[BANK0 ] long 
  7572 ;; Auto vars:     Size  Location     Type
  7573 ;;  channel         1   31[BANK0 ] unsigned char 
  7574 ;; Return value:  Size  Location     Type
  7575 ;;                  4   15[BANK0 ] long 
  7576 ;; Registers used:
  7577 ;;		wreg, fsr1l, fsr1h, status,2, status,0, pclath, cstack
  7578 ;; Tracked objects:
  7579 ;;		On entry : 0/0
  7580 ;;		On exit  : 0/0
  7581 ;;		Unchanged: 0/0
  7582 ;; Data sizes:     COMMON   BANK0   BANK1   BANK2   BANK3   BANK4   BANK5   BANK6   BANK7   BANK8   BANK9  BANK10  BANK1
      +1  BANK12  BANK13  BANK14  BANK15  BANK16  BANK17  BANK18  BANK19  BANK20  BANK21  BANK22  BANK23  BANK24  BANK25
  7583 ;;      Params:         0       4       0       0       0       0       0       0       0       0       0       0       
      +0       0       0       0       0       0       0       0       0       0       0       0       0       0       0
  7584 ;;      Locals:         0       1       0       0       0       0       0       0       0       0       0       0       
      +0       0       0       0       0       0       0       0       0       0       0       0       0       0       0
  7585 ;;      Temps:          0      12       0       0       0       0       0       0       0       0       0       0       
      +0       0       0       0       0       0       0       0       0       0       0       0       0       0       0
  7586 ;;      Totals:         0      17       0       0       0       0       0       0       0       0       0       0       
      +0       0       0       0       0       0       0       0       0       0       0       0       0       0       0
  7587 ;;Total ram usage:       17 bytes
  7588 ;; Hardware stack levels used: 1
  7589 ;; Hardware stack levels required when called: 5
  7590 ;; This function calls:
  7591 ;;		___aldiv
  7592 ;;		___lmul
  7593 ;; This function is called by:
  7594 ;;		_CapTouch_Read_Delta
  7595 ;; This function uses a non-reentrant model
  7596 ;;
  7597                           
  7598     023D                     _CapTouch_IIR_Butterworth:	
  7599                           ;psect for function _CapTouch_IIR_Butterworth
  7600                           
  7601                           
  7602                           ;incstack = 0
  7603                           ; Regs used in _CapTouch_IIR_Butterworth: [wreg+fsr1l+fsr1h+status,2+status,0+pclath+cst
      +                          ack]
  7604                           ;CapTouch_IIR_Butterworth@channel stored from wreg
  7605     023D  0020               	movlb	0	; select bank0
  7606     023E  00BF               	movwf	CapTouch_IIR_Butterworth@channel
  7607     023F                     l2767:
  7608                           
  7609                           ;captouch.c: 93: IIR.Input[channel]=input;
  7610     023F  083F               	movf	CapTouch_IIR_Butterworth@channel,w
  7611     0240  00B3               	movwf	??_CapTouch_IIR_Butterworth
  7612     0241  3001               	movlw	1
  7613     0242                     u2165:
  7614     0242  35B3               	lslf	??_CapTouch_IIR_Butterworth,f
  7615     0243  3EFF               	addlw	-1
  7616     0244  1D03               	skipz
  7617     0245  2A42               	goto	u2165
  7618     0246  3533               	lslf	??_CapTouch_IIR_Butterworth,w
  7619     0247  3EC4               	addlw	(low ((_IIR| 0+2)))& (0+255)
  7620     0248  0086               	movwf	6
  7621     0249  0187               	clrf	7
  7622     024A  082F               	movf	CapTouch_IIR_Butterworth@input,w
  7623     024B  3FC0               	movwi [0]fsr1
  7624     024C  0830               	movf	CapTouch_IIR_Butterworth@input+1,w
  7625     024D  3FC1               	movwi [1]fsr1
  7626     024E  0831               	movf	CapTouch_IIR_Butterworth@input+2,w
  7627     024F  3FC2               	movwi [2]fsr1
  7628     0250  0832               	movf	CapTouch_IIR_Butterworth@input+3,w
  7629     0251  3FC3               	movwi [3]fsr1
  7630     0252                     l2769:
  7631                           
  7632                           ;captouch.c: 94: IIR.Output[channel] =(IIR.Input[channel]*IIR.Alpha[channel])+((100-IIR.
      +                          Alpha[channel])*IIR.Output[channel]);
  7633     0252  083F               	movf	CapTouch_IIR_Butterworth@channel,w
  7634     0253  3EC2               	addlw	(low (_IIR| 0))& (0+255)
  7635     0254  0086               	movwf	6
  7636     0255  0187               	clrf	7
  7637     0256  3064               	movlw	100
  7638     0257  00B3               	movwf	??_CapTouch_IIR_Butterworth
  7639     0258  0801               	movf	1,w
  7640     0259  0233               	subwf	??_CapTouch_IIR_Butterworth,w
  7641     025A  00A0               	movwf	___lmul@multiplier
  7642     025B  01A1               	clrf	___lmul@multiplier+1
  7643     025C  1C03               	skipc
  7644     025D  03A1               	decf	___lmul@multiplier+1,f
  7645     025E  01A2               	clrf	___lmul@multiplier+2
  7646     025F  1BA1               	btfsc	___lmul@multiplier+1,7
  7647     0260  03A2               	decf	___lmul@multiplier+2,f
  7648     0261  0822               	movf	___lmul@multiplier+2,w
  7649     0262  00A3               	movwf	___lmul@multiplier+3
  7650     0263  083F               	movf	CapTouch_IIR_Butterworth@channel,w
  7651     0264  00B4               	movwf	??_CapTouch_IIR_Butterworth+1
  7652     0265  3001               	movlw	1
  7653     0266                     u2175:
  7654     0266  35B4               	lslf	??_CapTouch_IIR_Butterworth+1,f
  7655     0267  3EFF               	addlw	-1
  7656     0268  1D03               	skipz
  7657     0269  2A66               	goto	u2175
  7658     026A  3534               	lslf	??_CapTouch_IIR_Butterworth+1,w
  7659     026B  3ECC               	addlw	(low ((_IIR| 0+10)))& (0+255)
  7660     026C  0086               	movwf	6
  7661     026D  0187               	clrf	7
  7662     026E  3F40               	moviw [0]fsr1
  7663     026F  00A4               	movwf	___lmul@multiplicand
  7664     0270  3F41               	moviw [1]fsr1
  7665     0271  00A5               	movwf	___lmul@multiplicand+1
  7666     0272  3F42               	moviw [2]fsr1
  7667     0273  00A6               	movwf	___lmul@multiplicand+2
  7668     0274  3F43               	moviw [3]fsr1
  7669     0275  00A7               	movwf	___lmul@multiplicand+3
  7670     0276  318F  275F  3182   	fcall	___lmul
  7671     0279  0020               	movlb	0	; select bank0
  7672     027A  0820               	movf	?___lmul,w
  7673     027B  00B5               	movwf	??_CapTouch_IIR_Butterworth+2
  7674     027C  0821               	movf	?___lmul+1,w
  7675     027D  00B6               	movwf	??_CapTouch_IIR_Butterworth+3
  7676     027E  0822               	movf	?___lmul+2,w
  7677     027F  00B7               	movwf	??_CapTouch_IIR_Butterworth+4
  7678     0280  0823               	movf	?___lmul+3,w
  7679     0281  00B8               	movwf	??_CapTouch_IIR_Butterworth+5
  7680     0282  083F               	movf	CapTouch_IIR_Butterworth@channel,w
  7681     0283  3EC2               	addlw	(low (_IIR| 0))& (0+255)
  7682     0284  0086               	movwf	6
  7683     0285  0187               	clrf	7
  7684     0286  0801               	movf	1,w
  7685     0287  00B9               	movwf	??_CapTouch_IIR_Butterworth+6
  7686     0288  01BA               	clrf	??_CapTouch_IIR_Butterworth+7
  7687     0289  01BB               	clrf	??_CapTouch_IIR_Butterworth+8
  7688     028A  01BC               	clrf	??_CapTouch_IIR_Butterworth+9
  7689     028B  083C               	movf	??_CapTouch_IIR_Butterworth+9,w
  7690     028C  00A3               	movwf	___lmul@multiplier+3
  7691     028D  083B               	movf	??_CapTouch_IIR_Butterworth+8,w
  7692     028E  00A2               	movwf	___lmul@multiplier+2
  7693     028F  083A               	movf	??_CapTouch_IIR_Butterworth+7,w
  7694     0290  00A1               	movwf	___lmul@multiplier+1
  7695     0291  0839               	movf	??_CapTouch_IIR_Butterworth+6,w
  7696     0292  00A0               	movwf	___lmul@multiplier
  7697     0293  083F               	movf	CapTouch_IIR_Butterworth@channel,w
  7698     0294  00BD               	movwf	??_CapTouch_IIR_Butterworth+10
  7699     0295  3001               	movlw	1
  7700     0296                     u2185:
  7701     0296  35BD               	lslf	??_CapTouch_IIR_Butterworth+10,f
  7702     0297  3EFF               	addlw	-1
  7703     0298  1D03               	skipz
  7704     0299  2A96               	goto	u2185
  7705     029A  353D               	lslf	??_CapTouch_IIR_Butterworth+10,w
  7706     029B  3EC4               	addlw	(low ((_IIR| 0+2)))& (0+255)
  7707     029C  0086               	movwf	6
  7708     029D  0187               	clrf	7
  7709     029E  3F40               	moviw [0]fsr1
  7710     029F  00A4               	movwf	___lmul@multiplicand
  7711     02A0  3F41               	moviw [1]fsr1
  7712     02A1  00A5               	movwf	___lmul@multiplicand+1
  7713     02A2  3F42               	moviw [2]fsr1
  7714     02A3  00A6               	movwf	___lmul@multiplicand+2
  7715     02A4  3F43               	moviw [3]fsr1
  7716     02A5  00A7               	movwf	___lmul@multiplicand+3
  7717     02A6  318F  275F  3182   	fcall	___lmul
  7718     02A9  0020               	movlb	0	; select bank0
  7719     02AA  0820               	movf	?___lmul,w
  7720     02AB  07B5               	addwf	??_CapTouch_IIR_Butterworth+2,f
  7721     02AC  0821               	movf	?___lmul+1,w
  7722     02AD  3DB6               	addwfc	??_CapTouch_IIR_Butterworth+3,f
  7723     02AE  0822               	movf	?___lmul+2,w
  7724     02AF  3DB7               	addwfc	??_CapTouch_IIR_Butterworth+4,f
  7725     02B0  0823               	movf	?___lmul+3,w
  7726     02B1  3DB8               	addwfc	??_CapTouch_IIR_Butterworth+5,f
  7727     02B2  083F               	movf	CapTouch_IIR_Butterworth@channel,w
  7728     02B3  00BE               	movwf	??_CapTouch_IIR_Butterworth+11
  7729     02B4  3001               	movlw	1
  7730     02B5                     u2195:
  7731     02B5  35BE               	lslf	??_CapTouch_IIR_Butterworth+11,f
  7732     02B6  3EFF               	addlw	-1
  7733     02B7  1D03               	skipz
  7734     02B8  2AB5               	goto	u2195
  7735     02B9  353E               	lslf	??_CapTouch_IIR_Butterworth+11,w
  7736     02BA  3ECC               	addlw	(low ((_IIR| 0+10)))& (0+255)
  7737     02BB  0086               	movwf	6
  7738     02BC  0187               	clrf	7
  7739     02BD  0835               	movf	??_CapTouch_IIR_Butterworth+2,w
  7740     02BE  3FC0               	movwi [0]fsr1
  7741     02BF  0836               	movf	??_CapTouch_IIR_Butterworth+3,w
  7742     02C0  3FC1               	movwi [1]fsr1
  7743     02C1  0837               	movf	??_CapTouch_IIR_Butterworth+4,w
  7744     02C2  3FC2               	movwi [2]fsr1
  7745     02C3  0838               	movf	??_CapTouch_IIR_Butterworth+5,w
  7746     02C4  3FC3               	movwi [3]fsr1
  7747     02C5                     l2771:
  7748                           
  7749                           ;captouch.c: 95: IIR.Output[channel]/= 100;
  7750     02C5  3000               	movlw	0
  7751     02C6  00A3               	movwf	___aldiv@divisor+3
  7752     02C7  3000               	movlw	0
  7753     02C8  00A2               	movwf	___aldiv@divisor+2
  7754     02C9  3000               	movlw	0
  7755     02CA  00A1               	movwf	___aldiv@divisor+1
  7756     02CB  3064               	movlw	100
  7757     02CC  00A0               	movwf	___aldiv@divisor
  7758     02CD  083F               	movf	CapTouch_IIR_Butterworth@channel,w
  7759     02CE  00B3               	movwf	??_CapTouch_IIR_Butterworth
  7760     02CF  3001               	movlw	1
  7761     02D0                     u2205:
  7762     02D0  35B3               	lslf	??_CapTouch_IIR_Butterworth,f
  7763     02D1  3EFF               	addlw	-1
  7764     02D2  1D03               	skipz
  7765     02D3  2AD0               	goto	u2205
  7766     02D4  3533               	lslf	??_CapTouch_IIR_Butterworth,w
  7767     02D5  3ECC               	addlw	(low ((_IIR| 0+10)))& (0+255)
  7768     02D6  0086               	movwf	6
  7769     02D7  0187               	clrf	7
  7770     02D8  3F40               	moviw [0]fsr1
  7771     02D9  00A4               	movwf	___aldiv@dividend
  7772     02DA  3F41               	moviw [1]fsr1
  7773     02DB  00A5               	movwf	___aldiv@dividend+1
  7774     02DC  3F42               	moviw [2]fsr1
  7775     02DD  00A6               	movwf	___aldiv@dividend+2
  7776     02DE  3F43               	moviw [3]fsr1
  7777     02DF  00A7               	movwf	___aldiv@dividend+3
  7778     02E0  3184  244A  3182   	fcall	___aldiv
  7779     02E3  0020               	movlb	0	; select bank0
  7780     02E4  083F               	movf	CapTouch_IIR_Butterworth@channel,w
  7781     02E5  00B4               	movwf	??_CapTouch_IIR_Butterworth+1
  7782     02E6  3001               	movlw	1
  7783     02E7                     u2215:
  7784     02E7  35B4               	lslf	??_CapTouch_IIR_Butterworth+1,f
  7785     02E8  3EFF               	addlw	-1
  7786     02E9  1D03               	skipz
  7787     02EA  2AE7               	goto	u2215
  7788     02EB  3534               	lslf	??_CapTouch_IIR_Butterworth+1,w
  7789     02EC  3ECC               	addlw	(low ((_IIR| 0+10)))& (0+255)
  7790     02ED  0086               	movwf	6
  7791     02EE  0187               	clrf	7
  7792     02EF  0820               	movf	?___aldiv,w
  7793     02F0  3FC0               	movwi [0]fsr1
  7794     02F1  0821               	movf	?___aldiv+1,w
  7795     02F2  3FC1               	movwi [1]fsr1
  7796     02F3  0822               	movf	?___aldiv+2,w
  7797     02F4  3FC2               	movwi [2]fsr1
  7798     02F5  0823               	movf	?___aldiv+3,w
  7799     02F6  3FC3               	movwi [3]fsr1
  7800                           
  7801                           ;captouch.c: 96: return IIR.Output[channel];
  7802     02F7  083F               	movf	CapTouch_IIR_Butterworth@channel,w
  7803     02F8  00B3               	movwf	??_CapTouch_IIR_Butterworth
  7804     02F9  3001               	movlw	1
  7805     02FA                     u2225:
  7806     02FA  35B3               	lslf	??_CapTouch_IIR_Butterworth,f
  7807     02FB  3EFF               	addlw	-1
  7808     02FC  1D03               	skipz
  7809     02FD  2AFA               	goto	u2225
  7810     02FE  3533               	lslf	??_CapTouch_IIR_Butterworth,w
  7811     02FF  3ECC               	addlw	(low ((_IIR| 0+10)))& (0+255)
  7812     0300  0086               	movwf	6
  7813     0301  0187               	clrf	7
  7814     0302  3F40               	moviw [0]fsr1
  7815     0303  00AF               	movwf	?_CapTouch_IIR_Butterworth
  7816     0304  3F41               	moviw [1]fsr1
  7817     0305  00B0               	movwf	?_CapTouch_IIR_Butterworth+1
  7818     0306  3F42               	moviw [2]fsr1
  7819     0307  00B1               	movwf	?_CapTouch_IIR_Butterworth+2
  7820     0308  3F43               	moviw [3]fsr1
  7821     0309  00B2               	movwf	?_CapTouch_IIR_Butterworth+3
  7822     030A                     l127:
  7823     030A  0008               	return
  7824     030B                     __end_of_CapTouch_IIR_Butterworth:
  7825                           
  7826                           	psect	text31
  7827     0F5F                     __ptext31:	
  7828 ;; *************** function ___lmul *****************
  7829 ;; Defined at:
  7830 ;;		line 15 in file "C:\Program Files\Microchip\xc8\v2.40\pic\sources\c90\common\Umul32.c"
  7831 ;; Parameters:    Size  Location     Type
  7832 ;;  multiplier      4    0[BANK0 ] unsigned long 
  7833 ;;  multiplicand    4    4[BANK0 ] unsigned long 
  7834 ;; Auto vars:     Size  Location     Type
  7835 ;;  product         4    8[BANK0 ] unsigned long 
  7836 ;; Return value:  Size  Location     Type
  7837 ;;                  4    0[BANK0 ] unsigned long 
  7838 ;; Registers used:
  7839 ;;		wreg, status,2, status,0
  7840 ;; Tracked objects:
  7841 ;;		On entry : 0/0
  7842 ;;		On exit  : 0/0
  7843 ;;		Unchanged: 0/0
  7844 ;; Data sizes:     COMMON   BANK0   BANK1   BANK2   BANK3   BANK4   BANK5   BANK6   BANK7   BANK8   BANK9  BANK10  BANK1
      +1  BANK12  BANK13  BANK14  BANK15  BANK16  BANK17  BANK18  BANK19  BANK20  BANK21  BANK22  BANK23  BANK24  BANK25
  7845 ;;      Params:         0       8       0       0       0       0       0       0       0       0       0       0       
      +0       0       0       0       0       0       0       0       0       0       0       0       0       0       0
  7846 ;;      Locals:         0       4       0       0       0       0       0       0       0       0       0       0       
      +0       0       0       0       0       0       0       0       0       0       0       0       0       0       0
  7847 ;;      Temps:          0       0       0       0       0       0       0       0       0       0       0       0       
      +0       0       0       0       0       0       0       0       0       0       0       0       0       0       0
  7848 ;;      Totals:         0      12       0       0       0       0       0       0       0       0       0       0       
      +0       0       0       0       0       0       0       0       0       0       0       0       0       0       0
  7849 ;;Total ram usage:       12 bytes
  7850 ;; Hardware stack levels used: 1
  7851 ;; Hardware stack levels required when called: 4
  7852 ;; This function calls:
  7853 ;;		Nothing
  7854 ;; This function is called by:
  7855 ;;		_CapTouch_IIR_Butterworth
  7856 ;; This function uses a non-reentrant model
  7857 ;;
  7858                           
  7859     0F5F                     ___lmul:	
  7860                           ;psect for function ___lmul
  7861                           
  7862     0F5F                     l2713:	
  7863                           ;incstack = 0
  7864                           ; Regs used in ___lmul: [wreg+status,2+status,0]
  7865                           
  7866     0F5F  3000               	movlw	0
  7867     0F60  0020               	movlb	0	; select bank0
  7868     0F61  00AB               	movwf	___lmul@product+3
  7869     0F62  3000               	movlw	0
  7870     0F63  00AA               	movwf	___lmul@product+2
  7871     0F64  3000               	movlw	0
  7872     0F65  00A9               	movwf	___lmul@product+1
  7873     0F66  3000               	movlw	0
  7874     0F67  00A8               	movwf	___lmul@product
  7875     0F68                     l2715:
  7876     0F68  1C20               	btfss	___lmul@multiplier,0
  7877     0F69  2F6B               	goto	u2021
  7878     0F6A  2F6C               	goto	u2020
  7879     0F6B                     u2021:
  7880     0F6B  2F74               	goto	l2719
  7881     0F6C                     u2020:
  7882     0F6C                     l2717:
  7883     0F6C  0824               	movf	___lmul@multiplicand,w
  7884     0F6D  07A8               	addwf	___lmul@product,f
  7885     0F6E  0825               	movf	___lmul@multiplicand+1,w
  7886     0F6F  3DA9               	addwfc	___lmul@product+1,f
  7887     0F70  0826               	movf	___lmul@multiplicand+2,w
  7888     0F71  3DAA               	addwfc	___lmul@product+2,f
  7889     0F72  0827               	movf	___lmul@multiplicand+3,w
  7890     0F73  3DAB               	addwfc	___lmul@product+3,f
  7891     0F74                     l2719:
  7892     0F74  3001               	movlw	1
  7893     0F75                     u2035:
  7894     0F75  35A4               	lslf	___lmul@multiplicand,f
  7895     0F76  0DA5               	rlf	___lmul@multiplicand+1,f
  7896     0F77  0DA6               	rlf	___lmul@multiplicand+2,f
  7897     0F78  0DA7               	rlf	___lmul@multiplicand+3,f
  7898     0F79  0B89               	decfsz	9,f
  7899     0F7A  2F75               	goto	u2035
  7900     0F7B                     l2721:
  7901     0F7B  3001               	movlw	1
  7902     0F7C                     u2045:
  7903     0F7C  36A3               	lsrf	___lmul@multiplier+3,f
  7904     0F7D  0CA2               	rrf	___lmul@multiplier+2,f
  7905     0F7E  0CA1               	rrf	___lmul@multiplier+1,f
  7906     0F7F  0CA0               	rrf	___lmul@multiplier,f
  7907     0F80  0B89               	decfsz	9,f
  7908     0F81  2F7C               	goto	u2045
  7909     0F82  0823               	movf	___lmul@multiplier+3,w
  7910     0F83  0422               	iorwf	___lmul@multiplier+2,w
  7911     0F84  0421               	iorwf	___lmul@multiplier+1,w
  7912     0F85  0420               	iorwf	___lmul@multiplier,w
  7913     0F86  1D03               	skipz
  7914     0F87  2F89               	goto	u2051
  7915     0F88  2F8A               	goto	u2050
  7916     0F89                     u2051:
  7917     0F89  2F68               	goto	l2715
  7918     0F8A                     u2050:
  7919     0F8A                     l2723:
  7920     0F8A  082B               	movf	___lmul@product+3,w
  7921     0F8B  00A3               	movwf	?___lmul+3
  7922     0F8C  082A               	movf	___lmul@product+2,w
  7923     0F8D  00A2               	movwf	?___lmul+2
  7924     0F8E  0829               	movf	___lmul@product+1,w
  7925     0F8F  00A1               	movwf	?___lmul+1
  7926     0F90  0828               	movf	___lmul@product,w
  7927     0F91  00A0               	movwf	?___lmul
  7928     0F92                     l921:
  7929     0F92  0008               	return
  7930     0F93                     __end_of___lmul:
  7931                           
  7932                           	psect	text32
  7933     044A                     __ptext32:	
  7934 ;; *************** function ___aldiv *****************
  7935 ;; Defined at:
  7936 ;;		line 5 in file "C:\Program Files\Microchip\xc8\v2.40\pic\sources\c90\common\aldiv.c"
  7937 ;; Parameters:    Size  Location     Type
  7938 ;;  divisor         4    0[BANK0 ] long 
  7939 ;;  dividend        4    4[BANK0 ] long 
  7940 ;; Auto vars:     Size  Location     Type
  7941 ;;  quotient        4   11[BANK0 ] long 
  7942 ;;  sign            1   10[BANK0 ] unsigned char 
  7943 ;;  counter         1    9[BANK0 ] unsigned char 
  7944 ;; Return value:  Size  Location     Type
  7945 ;;                  4    0[BANK0 ] long 
  7946 ;; Registers used:
  7947 ;;		wreg, status,2, status,0
  7948 ;; Tracked objects:
  7949 ;;		On entry : 0/0
  7950 ;;		On exit  : 0/0
  7951 ;;		Unchanged: 0/0
  7952 ;; Data sizes:     COMMON   BANK0   BANK1   BANK2   BANK3   BANK4   BANK5   BANK6   BANK7   BANK8   BANK9  BANK10  BANK1
      +1  BANK12  BANK13  BANK14  BANK15  BANK16  BANK17  BANK18  BANK19  BANK20  BANK21  BANK22  BANK23  BANK24  BANK25
  7953 ;;      Params:         0       8       0       0       0       0       0       0       0       0       0       0       
      +0       0       0       0       0       0       0       0       0       0       0       0       0       0       0
  7954 ;;      Locals:         0       6       0       0       0       0       0       0       0       0       0       0       
      +0       0       0       0       0       0       0       0       0       0       0       0       0       0       0
  7955 ;;      Temps:          0       1       0       0       0       0       0       0       0       0       0       0       
      +0       0       0       0       0       0       0       0       0       0       0       0       0       0       0
  7956 ;;      Totals:         0      15       0       0       0       0       0       0       0       0       0       0       
      +0       0       0       0       0       0       0       0       0       0       0       0       0       0       0
  7957 ;;Total ram usage:       15 bytes
  7958 ;; Hardware stack levels used: 1
  7959 ;; Hardware stack levels required when called: 4
  7960 ;; This function calls:
  7961 ;;		Nothing
  7962 ;; This function is called by:
  7963 ;;		_CapTouch_IIR_Butterworth
  7964 ;;		_CapTouch_Calibration
  7965 ;; This function uses a non-reentrant model
  7966 ;;
  7967                           
  7968     044A                     ___aldiv:	
  7969                           ;psect for function ___aldiv
  7970                           
  7971     044A                     l2727:	
  7972                           ;incstack = 0
  7973                           ; Regs used in ___aldiv: [wreg+status,2+status,0]
  7974                           
  7975     044A  0020               	movlb	0	; select bank0
  7976     044B  01AA               	clrf	___aldiv@sign
  7977     044C                     l2729:
  7978     044C  1FA3               	btfss	___aldiv@divisor+3,7
  7979     044D  2C4F               	goto	u2061
  7980     044E  2C50               	goto	u2060
  7981     044F                     u2061:
  7982     044F  2C5D               	goto	l972
  7983     0450                     u2060:
  7984     0450                     l2731:
  7985     0450  09A0               	comf	___aldiv@divisor,f
  7986     0451  09A1               	comf	___aldiv@divisor+1,f
  7987     0452  09A2               	comf	___aldiv@divisor+2,f
  7988     0453  09A3               	comf	___aldiv@divisor+3,f
  7989     0454  0AA0               	incf	___aldiv@divisor,f
  7990     0455  1903               	skipnz
  7991     0456  0AA1               	incf	___aldiv@divisor+1,f
  7992     0457  1903               	skipnz
  7993     0458  0AA2               	incf	___aldiv@divisor+2,f
  7994     0459  1903               	skipnz
  7995     045A  0AA3               	incf	___aldiv@divisor+3,f
  7996     045B  01AA               	clrf	___aldiv@sign
  7997     045C  0AAA               	incf	___aldiv@sign,f
  7998     045D                     l972:
  7999     045D  1FA7               	btfss	___aldiv@dividend+3,7
  8000     045E  2C60               	goto	u2071
  8001     045F  2C61               	goto	u2070
  8002     0460                     u2071:
  8003     0460  2C70               	goto	l2737
  8004     0461                     u2070:
  8005     0461                     l2733:
  8006     0461  09A4               	comf	___aldiv@dividend,f
  8007     0462  09A5               	comf	___aldiv@dividend+1,f
  8008     0463  09A6               	comf	___aldiv@dividend+2,f
  8009     0464  09A7               	comf	___aldiv@dividend+3,f
  8010     0465  0AA4               	incf	___aldiv@dividend,f
  8011     0466  1903               	skipnz
  8012     0467  0AA5               	incf	___aldiv@dividend+1,f
  8013     0468  1903               	skipnz
  8014     0469  0AA6               	incf	___aldiv@dividend+2,f
  8015     046A  1903               	skipnz
  8016     046B  0AA7               	incf	___aldiv@dividend+3,f
  8017     046C                     l2735:
  8018     046C  3001               	movlw	1
  8019     046D  00A8               	movwf	??___aldiv
  8020     046E  0828               	movf	??___aldiv,w
  8021     046F  06AA               	xorwf	___aldiv@sign,f
  8022     0470                     l2737:
  8023     0470  3000               	movlw	0
  8024     0471  00AE               	movwf	___aldiv@quotient+3
  8025     0472  3000               	movlw	0
  8026     0473  00AD               	movwf	___aldiv@quotient+2
  8027     0474  3000               	movlw	0
  8028     0475  00AC               	movwf	___aldiv@quotient+1
  8029     0476  3000               	movlw	0
  8030     0477  00AB               	movwf	___aldiv@quotient
  8031     0478                     l2739:
  8032     0478  0823               	movf	___aldiv@divisor+3,w
  8033     0479  0422               	iorwf	___aldiv@divisor+2,w
  8034     047A  0421               	iorwf	___aldiv@divisor+1,w
  8035     047B  0420               	iorwf	___aldiv@divisor,w
  8036     047C  1903               	skipnz
  8037     047D  2C7F               	goto	u2081
  8038     047E  2C80               	goto	u2080
  8039     047F                     u2081:
  8040     047F  2CC1               	goto	l2759
  8041     0480                     u2080:
  8042     0480                     l2741:
  8043     0480  01A9               	clrf	___aldiv@counter
  8044     0481  0AA9               	incf	___aldiv@counter,f
  8045     0482  2C8E               	goto	l2745
  8046     0483                     l2743:
  8047     0483  3001               	movlw	1
  8048     0484                     u2095:
  8049     0484  35A0               	lslf	___aldiv@divisor,f
  8050     0485  0DA1               	rlf	___aldiv@divisor+1,f
  8051     0486  0DA2               	rlf	___aldiv@divisor+2,f
  8052     0487  0DA3               	rlf	___aldiv@divisor+3,f
  8053     0488  0B89               	decfsz	9,f
  8054     0489  2C84               	goto	u2095
  8055     048A  3001               	movlw	1
  8056     048B  00A8               	movwf	??___aldiv
  8057     048C  0828               	movf	??___aldiv,w
  8058     048D  07A9               	addwf	___aldiv@counter,f
  8059     048E                     l2745:
  8060     048E  1FA3               	btfss	___aldiv@divisor+3,7
  8061     048F  2C91               	goto	u2101
  8062     0490  2C92               	goto	u2100
  8063     0491                     u2101:
  8064     0491  2C83               	goto	l2743
  8065     0492                     u2100:
  8066     0492                     l2747:
  8067     0492  3001               	movlw	1
  8068     0493                     u2115:
  8069     0493  35AB               	lslf	___aldiv@quotient,f
  8070     0494  0DAC               	rlf	___aldiv@quotient+1,f
  8071     0495  0DAD               	rlf	___aldiv@quotient+2,f
  8072     0496  0DAE               	rlf	___aldiv@quotient+3,f
  8073     0497  0B89               	decfsz	9,f
  8074     0498  2C93               	goto	u2115
  8075     0499                     l2749:
  8076     0499  0823               	movf	___aldiv@divisor+3,w
  8077     049A  0227               	subwf	___aldiv@dividend+3,w
  8078     049B  1D03               	skipz
  8079     049C  2CA7               	goto	u2125
  8080     049D  0822               	movf	___aldiv@divisor+2,w
  8081     049E  0226               	subwf	___aldiv@dividend+2,w
  8082     049F  1D03               	skipz
  8083     04A0  2CA7               	goto	u2125
  8084     04A1  0821               	movf	___aldiv@divisor+1,w
  8085     04A2  0225               	subwf	___aldiv@dividend+1,w
  8086     04A3  1D03               	skipz
  8087     04A4  2CA7               	goto	u2125
  8088     04A5  0820               	movf	___aldiv@divisor,w
  8089     04A6  0224               	subwf	___aldiv@dividend,w
  8090     04A7                     u2125:
  8091     04A7  1C03               	skipc
  8092     04A8  2CAA               	goto	u2121
  8093     04A9  2CAB               	goto	u2120
  8094     04AA                     u2121:
  8095     04AA  2CB4               	goto	l2755
  8096     04AB                     u2120:
  8097     04AB                     l2751:
  8098     04AB  0820               	movf	___aldiv@divisor,w
  8099     04AC  02A4               	subwf	___aldiv@dividend,f
  8100     04AD  0821               	movf	___aldiv@divisor+1,w
  8101     04AE  3BA5               	subwfb	___aldiv@dividend+1,f
  8102     04AF  0822               	movf	___aldiv@divisor+2,w
  8103     04B0  3BA6               	subwfb	___aldiv@dividend+2,f
  8104     04B1  0823               	movf	___aldiv@divisor+3,w
  8105     04B2  3BA7               	subwfb	___aldiv@dividend+3,f
  8106     04B3                     l2753:
  8107     04B3  142B               	bsf	___aldiv@quotient,0
  8108     04B4                     l2755:
  8109     04B4  3001               	movlw	1
  8110     04B5                     u2135:
  8111     04B5  36A3               	lsrf	___aldiv@divisor+3,f
  8112     04B6  0CA2               	rrf	___aldiv@divisor+2,f
  8113     04B7  0CA1               	rrf	___aldiv@divisor+1,f
  8114     04B8  0CA0               	rrf	___aldiv@divisor,f
  8115     04B9  0B89               	decfsz	9,f
  8116     04BA  2CB5               	goto	u2135
  8117     04BB                     l2757:
  8118     04BB  3001               	movlw	1
  8119     04BC  02A9               	subwf	___aldiv@counter,f
  8120     04BD  1D03               	btfss	3,2
  8121     04BE  2CC0               	goto	u2141
  8122     04BF  2CC1               	goto	u2140
  8123     04C0                     u2141:
  8124     04C0  2C92               	goto	l2747
  8125     04C1                     u2140:
  8126     04C1                     l2759:
  8127     04C1  082A               	movf	___aldiv@sign,w
  8128     04C2  1903               	btfsc	3,2
  8129     04C3  2CC5               	goto	u2151
  8130     04C4  2CC6               	goto	u2150
  8131     04C5                     u2151:
  8132     04C5  2CD1               	goto	l2763
  8133     04C6                     u2150:
  8134     04C6                     l2761:
  8135     04C6  09AB               	comf	___aldiv@quotient,f
  8136     04C7  09AC               	comf	___aldiv@quotient+1,f
  8137     04C8  09AD               	comf	___aldiv@quotient+2,f
  8138     04C9  09AE               	comf	___aldiv@quotient+3,f
  8139     04CA  0AAB               	incf	___aldiv@quotient,f
  8140     04CB  1903               	skipnz
  8141     04CC  0AAC               	incf	___aldiv@quotient+1,f
  8142     04CD  1903               	skipnz
  8143     04CE  0AAD               	incf	___aldiv@quotient+2,f
  8144     04CF  1903               	skipnz
  8145     04D0  0AAE               	incf	___aldiv@quotient+3,f
  8146     04D1                     l2763:
  8147     04D1  082E               	movf	___aldiv@quotient+3,w
  8148     04D2  00A3               	movwf	?___aldiv+3
  8149     04D3  082D               	movf	___aldiv@quotient+2,w
  8150     04D4  00A2               	movwf	?___aldiv+2
  8151     04D5  082C               	movf	___aldiv@quotient+1,w
  8152     04D6  00A1               	movwf	?___aldiv+1
  8153     04D7  082B               	movf	___aldiv@quotient,w
  8154     04D8  00A0               	movwf	?___aldiv
  8155     04D9                     l982:
  8156     04D9  0008               	return
  8157     04DA                     __end_of___aldiv:
  8158                           
  8159                           	psect	text33
  8160     0D0C                     __ptext33:	
  8161 ;; *************** function _CapTouch_ADC_Wakeup *****************
  8162 ;; Defined at:
  8163 ;;		line 133 in file "captouch.c"
  8164 ;; Parameters:    Size  Location     Type
  8165 ;;		None
  8166 ;; Auto vars:     Size  Location     Type
  8167 ;;		None
  8168 ;; Return value:  Size  Location     Type
  8169 ;;                  1    wreg      void 
  8170 ;; Registers used:
  8171 ;;		None
  8172 ;; Tracked objects:
  8173 ;;		On entry : 0/0
  8174 ;;		On exit  : 0/0
  8175 ;;		Unchanged: 0/0
  8176 ;; Data sizes:     COMMON   BANK0   BANK1   BANK2   BANK3   BANK4   BANK5   BANK6   BANK7   BANK8   BANK9  BANK10  BANK1
      +1  BANK12  BANK13  BANK14  BANK15  BANK16  BANK17  BANK18  BANK19  BANK20  BANK21  BANK22  BANK23  BANK24  BANK25
  8177 ;;      Params:         0       0       0       0       0       0       0       0       0       0       0       0       
      +0       0       0       0       0       0       0       0       0       0       0       0       0       0       0
  8178 ;;      Locals:         0       0       0       0       0       0       0       0       0       0       0       0       
      +0       0       0       0       0       0       0       0       0       0       0       0       0       0       0
  8179 ;;      Temps:          0       0       0       0       0       0       0       0       0       0       0       0       
      +0       0       0       0       0       0       0       0       0       0       0       0       0       0       0
  8180 ;;      Totals:         0       0       0       0       0       0       0       0       0       0       0       0       
      +0       0       0       0       0       0       0       0       0       0       0       0       0       0       0
  8181 ;;Total ram usage:        0 bytes
  8182 ;; Hardware stack levels used: 1
  8183 ;; Hardware stack levels required when called: 4
  8184 ;; This function calls:
  8185 ;;		Nothing
  8186 ;; This function is called by:
  8187 ;;		_CapTouch_Read_Delta
  8188 ;; This function uses a non-reentrant model
  8189 ;;
  8190                           
  8191     0D0C                     _CapTouch_ADC_Wakeup:	
  8192                           ;psect for function _CapTouch_ADC_Wakeup
  8193                           
  8194     0D0C                     l2775:	
  8195                           ;incstack = 0
  8196                           ; Regs used in _CapTouch_ADC_Wakeup: []
  8197                           
  8198                           
  8199                           ;captouch.c: 134: ADCON0|=(1<<0);
  8200     0D0C  0021               	movlb	1	; select bank1
  8201     0D0D  141D               	bsf	29,0	;volatile
  8202     0D0E                     l151:
  8203     0D0E  0008               	return
  8204     0D0F                     __end_of_CapTouch_ADC_Wakeup:
  8205                           
  8206                           	psect	text34
  8207     0D13                     __ptext34:	
  8208 ;; *************** function _CapTouch_ADC_Sleep *****************
  8209 ;; Defined at:
  8210 ;;		line 137 in file "captouch.c"
  8211 ;; Parameters:    Size  Location     Type
  8212 ;;		None
  8213 ;; Auto vars:     Size  Location     Type
  8214 ;;		None
  8215 ;; Return value:  Size  Location     Type
  8216 ;;                  1    wreg      void 
  8217 ;; Registers used:
  8218 ;;		wreg, status,2, status,0
  8219 ;; Tracked objects:
  8220 ;;		On entry : 0/0
  8221 ;;		On exit  : 0/0
  8222 ;;		Unchanged: 0/0
  8223 ;; Data sizes:     COMMON   BANK0   BANK1   BANK2   BANK3   BANK4   BANK5   BANK6   BANK7   BANK8   BANK9  BANK10  BANK1
      +1  BANK12  BANK13  BANK14  BANK15  BANK16  BANK17  BANK18  BANK19  BANK20  BANK21  BANK22  BANK23  BANK24  BANK25
  8224 ;;      Params:         0       0       0       0       0       0       0       0       0       0       0       0       
      +0       0       0       0       0       0       0       0       0       0       0       0       0       0       0
  8225 ;;      Locals:         0       0       0       0       0       0       0       0       0       0       0       0       
      +0       0       0       0       0       0       0       0       0       0       0       0       0       0       0
  8226 ;;      Temps:          0       1       0       0       0       0       0       0       0       0       0       0       
      +0       0       0       0       0       0       0       0       0       0       0       0       0       0       0
  8227 ;;      Totals:         0       1       0       0       0       0       0       0       0       0       0       0       
      +0       0       0       0       0       0       0       0       0       0       0       0       0       0       0
  8228 ;;Total ram usage:        1 bytes
  8229 ;; Hardware stack levels used: 1
  8230 ;; Hardware stack levels required when called: 4
  8231 ;; This function calls:
  8232 ;;		Nothing
  8233 ;; This function is called by:
  8234 ;;		_CapTouch_Read_Delta
  8235 ;; This function uses a non-reentrant model
  8236 ;;
  8237                           
  8238     0D13                     _CapTouch_ADC_Sleep:	
  8239                           ;psect for function _CapTouch_ADC_Sleep
  8240                           
  8241     0D13                     l2777:	
  8242                           ;incstack = 0
  8243                           ; Regs used in _CapTouch_ADC_Sleep: [wreg+status,2+status,0]
  8244                           
  8245                           
  8246                           ;captouch.c: 138: ADCON0&=~(1<<0);
  8247     0D13  30FE               	movlw	254
  8248     0D14  0020               	movlb	0	; select bank0
  8249     0D15  00A0               	movwf	??_CapTouch_ADC_Sleep
  8250     0D16  0820               	movf	??_CapTouch_ADC_Sleep,w
  8251     0D17  0021               	movlb	1	; select bank1
  8252     0D18  059D               	andwf	29,f	;volatile
  8253     0D19                     l154:
  8254     0D19  0008               	return
  8255     0D1A                     __end_of_CapTouch_ADC_Sleep:
  8256                           
  8257                           	psect	text35
  8258     0E99                     __ptext35:	
  8259 ;; *************** function _CapTouch_ADC_Sample2 *****************
  8260 ;; Defined at:
  8261 ;;		line 168 in file "captouch.c"
  8262 ;; Parameters:    Size  Location     Type
  8263 ;;  current_chan    1    wreg     unsigned char 
  8264 ;; Auto vars:     Size  Location     Type
  8265 ;;  current_chan    1    6[BANK0 ] unsigned char 
  8266 ;; Return value:  Size  Location     Type
  8267 ;;                  1    wreg      void 
  8268 ;; Registers used:
  8269 ;;		wreg, fsr1l, fsr1h, status,2, status,0, pclath, cstack
  8270 ;; Tracked objects:
  8271 ;;		On entry : 0/0
  8272 ;;		On exit  : 0/0
  8273 ;;		Unchanged: 0/0
  8274 ;; Data sizes:     COMMON   BANK0   BANK1   BANK2   BANK3   BANK4   BANK5   BANK6   BANK7   BANK8   BANK9  BANK10  BANK1
      +1  BANK12  BANK13  BANK14  BANK15  BANK16  BANK17  BANK18  BANK19  BANK20  BANK21  BANK22  BANK23  BANK24  BANK25
  8275 ;;      Params:         0       0       0       0       0       0       0       0       0       0       0       0       
      +0       0       0       0       0       0       0       0       0       0       0       0       0       0       0
  8276 ;;      Locals:         0       1       0       0       0       0       0       0       0       0       0       0       
      +0       0       0       0       0       0       0       0       0       0       0       0       0       0       0
  8277 ;;      Temps:          0       0       0       0       0       0       0       0       0       0       0       0       
      +0       0       0       0       0       0       0       0       0       0       0       0       0       0       0
  8278 ;;      Totals:         0       1       0       0       0       0       0       0       0       0       0       0       
      +0       0       0       0       0       0       0       0       0       0       0       0       0       0       0
  8279 ;;Total ram usage:        1 bytes
  8280 ;; Hardware stack levels used: 1
  8281 ;; Hardware stack levels required when called: 5
  8282 ;; This function calls:
  8283 ;;		_CapTouch_ADC_Sample
  8284 ;;		_CapTouch_Set_Key_Pin_Analog
  8285 ;; This function is called by:
  8286 ;;		_CapTouch_Read_Delta
  8287 ;; This function uses a non-reentrant model
  8288 ;;
  8289                           
  8290     0E99                     _CapTouch_ADC_Sample2:	
  8291                           ;psect for function _CapTouch_ADC_Sample2
  8292                           
  8293                           
  8294                           ;incstack = 0
  8295                           ; Regs used in _CapTouch_ADC_Sample2: [wreg+fsr1l+fsr1h+status,2+status,0+pclath+cstack]
  8296                           ;CapTouch_ADC_Sample2@current_channel stored from wreg
  8297     0E99  0020               	movlb	0	; select bank0
  8298     0E9A  00A6               	movwf	CapTouch_ADC_Sample2@current_channel
  8299     0E9B                     l2791:
  8300                           
  8301                           ;captouch.c: 169: CapTouch_Set_Key_Pin_Analog(CapTouch_Pins[current_channel]);
  8302     0E9B  0826               	movf	CapTouch_ADC_Sample2@current_channel,w
  8303     0E9C  3E6B               	addlw	(low (_CapTouch_Pins| 0))& (0+255)
  8304     0E9D  0086               	movwf	6
  8305     0E9E  0187               	clrf	7
  8306     0E9F  0801               	movf	1,w
  8307     0EA0  318E  2626  318E   	fcall	_CapTouch_Set_Key_Pin_Analog
  8308                           
  8309                           ;captouch.c: 170: CapTouch.RawADC2[current_channel]=CapTouch_ADC_Sample(CapTouch_Pins[cu
      +                          rrent_channel]+0x00);
  8310     0EA3  0020               	movlb	0	; select bank0
  8311     0EA4  0826               	movf	CapTouch_ADC_Sample2@current_channel,w
  8312     0EA5  3E6B               	addlw	(low (_CapTouch_Pins| 0))& (0+255)
  8313     0EA6  0086               	movwf	6
  8314     0EA7  0187               	clrf	7
  8315     0EA8  0801               	movf	1,w
  8316     0EA9  318F  2715  318E   	fcall	_CapTouch_ADC_Sample
  8317     0EAC  0020               	movlb	0	; select bank0
  8318     0EAD  3526               	lslf	CapTouch_ADC_Sample2@current_channel,w
  8319     0EAE  3E2B               	addlw	(low ((_CapTouch| (0+256)+11)))& (0+255)
  8320     0EAF  0086               	movwf	6
  8321     0EB0  3001               	movlw	1	; select bank2/3
  8322     0EB1  0087               	movwf	7
  8323     0EB2  0820               	movf	?_CapTouch_ADC_Sample,w
  8324     0EB3  3FC0               	movwi [0]fsr1
  8325     0EB4  0821               	movf	?_CapTouch_ADC_Sample+1,w
  8326     0EB5  3FC1               	movwi [1]fsr1
  8327     0EB6                     l172:
  8328     0EB6  0008               	return
  8329     0EB7                     __end_of_CapTouch_ADC_Sample2:
  8330                           
  8331                           	psect	text36
  8332     0E7B                     __ptext36:	
  8333 ;; *************** function _CapTouch_ADC_Sample1 *****************
  8334 ;; Defined at:
  8335 ;;		line 157 in file "captouch.c"
  8336 ;; Parameters:    Size  Location     Type
  8337 ;;  current_chan    1    wreg     unsigned char 
  8338 ;; Auto vars:     Size  Location     Type
  8339 ;;  current_chan    1    6[BANK0 ] unsigned char 
  8340 ;; Return value:  Size  Location     Type
  8341 ;;                  1    wreg      void 
  8342 ;; Registers used:
  8343 ;;		wreg, fsr1l, fsr1h, status,2, status,0, pclath, cstack
  8344 ;; Tracked objects:
  8345 ;;		On entry : 0/0
  8346 ;;		On exit  : 0/0
  8347 ;;		Unchanged: 0/0
  8348 ;; Data sizes:     COMMON   BANK0   BANK1   BANK2   BANK3   BANK4   BANK5   BANK6   BANK7   BANK8   BANK9  BANK10  BANK1
      +1  BANK12  BANK13  BANK14  BANK15  BANK16  BANK17  BANK18  BANK19  BANK20  BANK21  BANK22  BANK23  BANK24  BANK25
  8349 ;;      Params:         0       0       0       0       0       0       0       0       0       0       0       0       
      +0       0       0       0       0       0       0       0       0       0       0       0       0       0       0
  8350 ;;      Locals:         0       1       0       0       0       0       0       0       0       0       0       0       
      +0       0       0       0       0       0       0       0       0       0       0       0       0       0       0
  8351 ;;      Temps:          0       0       0       0       0       0       0       0       0       0       0       0       
      +0       0       0       0       0       0       0       0       0       0       0       0       0       0       0
  8352 ;;      Totals:         0       1       0       0       0       0       0       0       0       0       0       0       
      +0       0       0       0       0       0       0       0       0       0       0       0       0       0       0
  8353 ;;Total ram usage:        1 bytes
  8354 ;; Hardware stack levels used: 1
  8355 ;; Hardware stack levels required when called: 5
  8356 ;; This function calls:
  8357 ;;		_CapTouch_ADC_Sample
  8358 ;;		_CapTouch_Set_Key_Pin_Analog
  8359 ;; This function is called by:
  8360 ;;		_CapTouch_Read_Delta
  8361 ;; This function uses a non-reentrant model
  8362 ;;
  8363                           
  8364     0E7B                     _CapTouch_ADC_Sample1:	
  8365                           ;psect for function _CapTouch_ADC_Sample1
  8366                           
  8367                           
  8368                           ;incstack = 0
  8369                           ; Regs used in _CapTouch_ADC_Sample1: [wreg+fsr1l+fsr1h+status,2+status,0+pclath+cstack]
  8370                           ;CapTouch_ADC_Sample1@current_channel stored from wreg
  8371     0E7B  0020               	movlb	0	; select bank0
  8372     0E7C  00A6               	movwf	CapTouch_ADC_Sample1@current_channel
  8373     0E7D                     l2785:
  8374                           
  8375                           ;captouch.c: 158: CapTouch_Set_Key_Pin_Analog(CapTouch_Pins[current_channel]);
  8376     0E7D  0826               	movf	CapTouch_ADC_Sample1@current_channel,w
  8377     0E7E  3E6B               	addlw	(low (_CapTouch_Pins| 0))& (0+255)
  8378     0E7F  0086               	movwf	6
  8379     0E80  0187               	clrf	7
  8380     0E81  0801               	movf	1,w
  8381     0E82  318E  2626  318E   	fcall	_CapTouch_Set_Key_Pin_Analog
  8382                           
  8383                           ;captouch.c: 159: CapTouch.RawADC1[current_channel]=CapTouch_ADC_Sample(CapTouch_Pins[cu
      +                          rrent_channel]+0x00);
  8384     0E85  0020               	movlb	0	; select bank0
  8385     0E86  0826               	movf	CapTouch_ADC_Sample1@current_channel,w
  8386     0E87  3E6B               	addlw	(low (_CapTouch_Pins| 0))& (0+255)
  8387     0E88  0086               	movwf	6
  8388     0E89  0187               	clrf	7
  8389     0E8A  0801               	movf	1,w
  8390     0E8B  318F  2715  318E   	fcall	_CapTouch_ADC_Sample
  8391     0E8E  0020               	movlb	0	; select bank0
  8392     0E8F  3526               	lslf	CapTouch_ADC_Sample1@current_channel,w
  8393     0E90  3E27               	addlw	(low ((_CapTouch| (0+256)+7)))& (0+255)
  8394     0E91  0086               	movwf	6
  8395     0E92  3001               	movlw	1	; select bank2/3
  8396     0E93  0087               	movwf	7
  8397     0E94  0820               	movf	?_CapTouch_ADC_Sample,w
  8398     0E95  3FC0               	movwi [0]fsr1
  8399     0E96  0821               	movf	?_CapTouch_ADC_Sample+1,w
  8400     0E97  3FC1               	movwi [1]fsr1
  8401     0E98                     l166:
  8402     0E98  0008               	return
  8403     0E99                     __end_of_CapTouch_ADC_Sample1:
  8404                           
  8405                           	psect	text37
  8406     0E26                     __ptext37:	
  8407 ;; *************** function _CapTouch_Set_Key_Pin_Analog *****************
  8408 ;; Defined at:
  8409 ;;		line 104 in file "captouch.c"
  8410 ;; Parameters:    Size  Location     Type
  8411 ;;  current_chan    1    wreg     unsigned char 
  8412 ;; Auto vars:     Size  Location     Type
  8413 ;;  current_chan    1    2[BANK0 ] unsigned char 
  8414 ;; Return value:  Size  Location     Type
  8415 ;;                  1    wreg      void 
  8416 ;; Registers used:
  8417 ;;		wreg, status,2, status,0
  8418 ;; Tracked objects:
  8419 ;;		On entry : 0/0
  8420 ;;		On exit  : 0/0
  8421 ;;		Unchanged: 0/0
  8422 ;; Data sizes:     COMMON   BANK0   BANK1   BANK2   BANK3   BANK4   BANK5   BANK6   BANK7   BANK8   BANK9  BANK10  BANK1
      +1  BANK12  BANK13  BANK14  BANK15  BANK16  BANK17  BANK18  BANK19  BANK20  BANK21  BANK22  BANK23  BANK24  BANK25
  8423 ;;      Params:         0       0       0       0       0       0       0       0       0       0       0       0       
      +0       0       0       0       0       0       0       0       0       0       0       0       0       0       0
  8424 ;;      Locals:         0       1       0       0       0       0       0       0       0       0       0       0       
      +0       0       0       0       0       0       0       0       0       0       0       0       0       0       0
  8425 ;;      Temps:          0       2       0       0       0       0       0       0       0       0       0       0       
      +0       0       0       0       0       0       0       0       0       0       0       0       0       0       0
  8426 ;;      Totals:         0       3       0       0       0       0       0       0       0       0       0       0       
      +0       0       0       0       0       0       0       0       0       0       0       0       0       0       0
  8427 ;;Total ram usage:        3 bytes
  8428 ;; Hardware stack levels used: 1
  8429 ;; Hardware stack levels required when called: 4
  8430 ;; This function calls:
  8431 ;;		Nothing
  8432 ;; This function is called by:
  8433 ;;		_CapTouch_ADC_Sample1
  8434 ;;		_CapTouch_ADC_Sample2
  8435 ;; This function uses a non-reentrant model
  8436 ;;
  8437                           
  8438     0E26                     _CapTouch_Set_Key_Pin_Analog:	
  8439                           ;psect for function _CapTouch_Set_Key_Pin_Analog
  8440                           
  8441                           
  8442                           ;incstack = 0
  8443                           ; Regs used in _CapTouch_Set_Key_Pin_Analog: [wreg+status,2+status,0]
  8444                           ;CapTouch_Set_Key_Pin_Analog@current_channel stored from wreg
  8445     0E26  0020               	movlb	0	; select bank0
  8446     0E27  00A2               	movwf	CapTouch_Set_Key_Pin_Analog@current_channel
  8447     0E28                     l2693:
  8448                           
  8449                           ;captouch.c: 105: TRISA |= (1<<current_channel);
  8450     0E28  3001               	movlw	1
  8451     0E29  00A0               	movwf	??_CapTouch_Set_Key_Pin_Analog
  8452     0E2A  0A22               	incf	CapTouch_Set_Key_Pin_Analog@current_channel,w
  8453     0E2B  2E2D               	goto	u1944
  8454     0E2C                     u1945:
  8455     0E2C  35A0               	lslf	??_CapTouch_Set_Key_Pin_Analog,f
  8456     0E2D                     u1944:
  8457     0E2D  0B89               	decfsz	9,f
  8458     0E2E  2E2C               	goto	u1945
  8459     0E2F  0820               	movf	??_CapTouch_Set_Key_Pin_Analog,w
  8460     0E30  00A1               	movwf	??_CapTouch_Set_Key_Pin_Analog+1
  8461     0E31  0821               	movf	??_CapTouch_Set_Key_Pin_Analog+1,w
  8462     0E32  0021               	movlb	1	; select bank1
  8463     0E33  048C               	iorwf	12,f	;volatile
  8464                           
  8465                           ;captouch.c: 106: ANSELA|= (1<<current_channel);
  8466     0E34  3001               	movlw	1
  8467     0E35  0020               	movlb	0	; select bank0
  8468     0E36  00A0               	movwf	??_CapTouch_Set_Key_Pin_Analog
  8469     0E37  0A22               	incf	CapTouch_Set_Key_Pin_Analog@current_channel,w
  8470     0E38  2E3A               	goto	u1954
  8471     0E39                     u1955:
  8472     0E39  35A0               	lslf	??_CapTouch_Set_Key_Pin_Analog,f
  8473     0E3A                     u1954:
  8474     0E3A  0B89               	decfsz	9,f
  8475     0E3B  2E39               	goto	u1955
  8476     0E3C  0820               	movf	??_CapTouch_Set_Key_Pin_Analog,w
  8477     0E3D  00A1               	movwf	??_CapTouch_Set_Key_Pin_Analog+1
  8478     0E3E  0821               	movf	??_CapTouch_Set_Key_Pin_Analog+1,w
  8479     0E3F  0023               	movlb	3	; select bank3
  8480     0E40  048C               	iorwf	12,f	;volatile
  8481     0E41                     l133:
  8482     0E41  0008               	return
  8483     0E42                     __end_of_CapTouch_Set_Key_Pin_Analog:
  8484                           
  8485                           	psect	text38
  8486     0F15                     __ptext38:	
  8487 ;; *************** function _CapTouch_ADC_Sample *****************
  8488 ;; Defined at:
  8489 ;;		line 141 in file "captouch.c"
  8490 ;; Parameters:    Size  Location     Type
  8491 ;;  channel         1    wreg     unsigned char 
  8492 ;; Auto vars:     Size  Location     Type
  8493 ;;  channel         1    5[BANK0 ] unsigned char 
  8494 ;;  res             2    3[BANK0 ] unsigned int 
  8495 ;; Return value:  Size  Location     Type
  8496 ;;                  2    0[BANK0 ] unsigned int 
  8497 ;; Registers used:
  8498 ;;		wreg, status,2, status,0
  8499 ;; Tracked objects:
  8500 ;;		On entry : 0/0
  8501 ;;		On exit  : 0/0
  8502 ;;		Unchanged: 0/0
  8503 ;; Data sizes:     COMMON   BANK0   BANK1   BANK2   BANK3   BANK4   BANK5   BANK6   BANK7   BANK8   BANK9  BANK10  BANK1
      +1  BANK12  BANK13  BANK14  BANK15  BANK16  BANK17  BANK18  BANK19  BANK20  BANK21  BANK22  BANK23  BANK24  BANK25
  8504 ;;      Params:         0       2       0       0       0       0       0       0       0       0       0       0       
      +0       0       0       0       0       0       0       0       0       0       0       0       0       0       0
  8505 ;;      Locals:         0       3       0       0       0       0       0       0       0       0       0       0       
      +0       0       0       0       0       0       0       0       0       0       0       0       0       0       0
  8506 ;;      Temps:          0       1       0       0       0       0       0       0       0       0       0       0       
      +0       0       0       0       0       0       0       0       0       0       0       0       0       0       0
  8507 ;;      Totals:         0       6       0       0       0       0       0       0       0       0       0       0       
      +0       0       0       0       0       0       0       0       0       0       0       0       0       0       0
  8508 ;;Total ram usage:        6 bytes
  8509 ;; Hardware stack levels used: 1
  8510 ;; Hardware stack levels required when called: 4
  8511 ;; This function calls:
  8512 ;;		Nothing
  8513 ;; This function is called by:
  8514 ;;		_CapTouch_Precharge_SH_Cap
  8515 ;;		_CapTouch_ADC_Sample1
  8516 ;;		_CapTouch_Precharge_Button
  8517 ;;		_CapTouch_ADC_Sample2
  8518 ;; This function uses a non-reentrant model
  8519 ;;
  8520                           
  8521     0F15                     _CapTouch_ADC_Sample:	
  8522                           ;psect for function _CapTouch_ADC_Sample
  8523                           
  8524                           
  8525                           ;incstack = 0
  8526                           ; Regs used in _CapTouch_ADC_Sample: [wreg+status,2+status,0]
  8527                           ;CapTouch_ADC_Sample@channel stored from wreg
  8528     0F15  0020               	movlb	0	; select bank0
  8529     0F16  00A5               	movwf	CapTouch_ADC_Sample@channel
  8530     0F17                     l2701:
  8531                           
  8532                           ;captouch.c: 142: ADCON0=(channel<<0x02)|(1<<0);
  8533     0F17  0825               	movf	CapTouch_ADC_Sample@channel,w
  8534     0F18  00A2               	movwf	??_CapTouch_ADC_Sample
  8535     0F19  3001               	movlw	1
  8536     0F1A                     u2005:
  8537     0F1A  35A2               	lslf	??_CapTouch_ADC_Sample,f
  8538     0F1B  3EFF               	addlw	-1
  8539     0F1C  1D03               	skipz
  8540     0F1D  2F1A               	goto	u2005
  8541     0F1E  3522               	lslf	??_CapTouch_ADC_Sample,w
  8542     0F1F  3801               	iorlw	1
  8543     0F20  0021               	movlb	1	; select bank1
  8544     0F21  009D               	movwf	29	;volatile
  8545     0F22                     l2703:
  8546                           
  8547                           ;captouch.c: 143: ADCON0|=(1<<1);
  8548     0F22  149D               	bsf	29,1	;volatile
  8549     0F23                     l157:	
  8550                           ;captouch.c: 144: while(ADCON0 & (1<<1));
  8551                           
  8552     0F23  189D               	btfsc	29,1	;volatile
  8553     0F24  2F26               	goto	u2011
  8554     0F25  2F27               	goto	u2010
  8555     0F26                     u2011:
  8556     0F26  2F23               	goto	l157
  8557     0F27                     u2010:
  8558     0F27                     l2705:
  8559                           
  8560                           ;captouch.c: 145: uint16_t res=ADRES;
  8561     0F27  081C               	movf	28,w	;volatile
  8562     0F28  0020               	movlb	0	; select bank0
  8563     0F29  00A4               	movwf	CapTouch_ADC_Sample@res+1
  8564     0F2A  0021               	movlb	1	; select bank1
  8565     0F2B  081B               	movf	27,w	;volatile
  8566     0F2C  0020               	movlb	0	; select bank0
  8567     0F2D  00A3               	movwf	CapTouch_ADC_Sample@res
  8568     0F2E                     l2707:
  8569                           
  8570                           ;captouch.c: 146: PIR1&=~(1<<6);
  8571     0F2E  30BF               	movlw	191
  8572     0F2F  00A2               	movwf	??_CapTouch_ADC_Sample
  8573     0F30  0822               	movf	??_CapTouch_ADC_Sample,w
  8574     0F31  0591               	andwf	17,f	;volatile
  8575     0F32                     l2709:
  8576                           
  8577                           ;captouch.c: 147: return res;
  8578     0F32  0824               	movf	CapTouch_ADC_Sample@res+1,w
  8579     0F33  00A1               	movwf	?_CapTouch_ADC_Sample+1
  8580     0F34  0823               	movf	CapTouch_ADC_Sample@res,w
  8581     0F35  00A0               	movwf	?_CapTouch_ADC_Sample
  8582     0F36                     l160:
  8583     0F36  0008               	return
  8584     0F37                     __end_of_CapTouch_ADC_Sample:
  8585                           
  8586                           	psect	text39
  8587     0DC9                     __ptext39:	
  8588 ;; *************** function _CapTouch_ADC_Register_Config *****************
  8589 ;; Defined at:
  8590 ;;		line 122 in file "captouch.c"
  8591 ;; Parameters:    Size  Location     Type
  8592 ;;		None
  8593 ;; Auto vars:     Size  Location     Type
  8594 ;;		None
  8595 ;; Return value:  Size  Location     Type
  8596 ;;                  1    wreg      void 
  8597 ;; Registers used:
  8598 ;;		wreg, status,2, status,0
  8599 ;; Tracked objects:
  8600 ;;		On entry : 0/0
  8601 ;;		On exit  : 0/0
  8602 ;;		Unchanged: 0/0
  8603 ;; Data sizes:     COMMON   BANK0   BANK1   BANK2   BANK3   BANK4   BANK5   BANK6   BANK7   BANK8   BANK9  BANK10  BANK1
      +1  BANK12  BANK13  BANK14  BANK15  BANK16  BANK17  BANK18  BANK19  BANK20  BANK21  BANK22  BANK23  BANK24  BANK25
  8604 ;;      Params:         0       0       0       0       0       0       0       0       0       0       0       0       
      +0       0       0       0       0       0       0       0       0       0       0       0       0       0       0
  8605 ;;      Locals:         0       0       0       0       0       0       0       0       0       0       0       0       
      +0       0       0       0       0       0       0       0       0       0       0       0       0       0       0
  8606 ;;      Temps:          0       1       0       0       0       0       0       0       0       0       0       0       
      +0       0       0       0       0       0       0       0       0       0       0       0       0       0       0
  8607 ;;      Totals:         0       1       0       0       0       0       0       0       0       0       0       0       
      +0       0       0       0       0       0       0       0       0       0       0       0       0       0       0
  8608 ;;Total ram usage:        1 bytes
  8609 ;; Hardware stack levels used: 1
  8610 ;; Hardware stack levels required when called: 4
  8611 ;; This function calls:
  8612 ;;		Nothing
  8613 ;; This function is called by:
  8614 ;;		_CapTouch_Init
  8615 ;; This function uses a non-reentrant model
  8616 ;;
  8617                           
  8618     0DC9                     _CapTouch_ADC_Register_Config:	
  8619                           ;psect for function _CapTouch_ADC_Register_Config
  8620                           
  8621     0DC9                     l2971:	
  8622                           ;incstack = 0
  8623                           ; Regs used in _CapTouch_ADC_Register_Config: [wreg+status,2+status,0]
  8624                           
  8625                           
  8626                           ;captouch.c: 123: FVRCON=(1<<0)|(1<<1);
  8627     0DC9  3003               	movlw	3
  8628     0DCA  0022               	movlb	2	; select bank2
  8629     0DCB  0097               	movwf	23	;volatile
  8630     0DCC                     l2973:
  8631                           
  8632                           ;captouch.c: 124: FVRCON|=(1<<7);
  8633     0DCC  1797               	bsf	23,7	;volatile
  8634     0DCD                     l145:	
  8635                           ;captouch.c: 125: while(!(FVRCON & (1<<6)));
  8636                           
  8637     0DCD  1F17               	btfss	23,6	;volatile
  8638     0DCE  2DD0               	goto	u2561
  8639     0DCF  2DD1               	goto	u2560
  8640     0DD0                     u2561:
  8641     0DD0  2DCD               	goto	l145
  8642     0DD1                     u2560:
  8643     0DD1                     l2975:
  8644                           
  8645                           ;captouch.c: 126: ADCON0=0x00;
  8646     0DD1  0021               	movlb	1	; select bank1
  8647     0DD2  019D               	clrf	29	;volatile
  8648                           
  8649                           ;captouch.c: 127: ADCON1=0x00;
  8650     0DD3  019E               	clrf	30	;volatile
  8651     0DD4                     l2977:
  8652                           
  8653                           ;captouch.c: 128: ADCON1|=(1<<7)|(1<<5);
  8654     0DD4  30A0               	movlw	160
  8655     0DD5  0020               	movlb	0	; select bank0
  8656     0DD6  00A0               	movwf	??_CapTouch_ADC_Register_Config
  8657     0DD7  0820               	movf	??_CapTouch_ADC_Register_Config,w
  8658     0DD8  0021               	movlb	1	; select bank1
  8659     0DD9  049E               	iorwf	30,f	;volatile
  8660     0DDA                     l2979:
  8661                           
  8662                           ;captouch.c: 129: ADACT=0x00;
  8663     0DDA  019F               	clrf	31	;volatile
  8664     0DDB                     l2981:
  8665                           
  8666                           ;captouch.c: 130: ADCON0|=(1<<0);
  8667     0DDB  141D               	bsf	29,0	;volatile
  8668     0DDC                     l148:
  8669     0DDC  0008               	return
  8670     0DDD                     __end_of_CapTouch_ADC_Register_Config:
  8671                           
  8672                           	psect	text40
  8673     0D4B                     __ptext40:	
  8674 ;; *************** function _CapTouch_Get_RawDifferentialADC *****************
  8675 ;; Defined at:
  8676 ;;		line 319 in file "captouch.c"
  8677 ;; Parameters:    Size  Location     Type
  8678 ;;  current_chan    1    wreg     unsigned char 
  8679 ;; Auto vars:     Size  Location     Type
  8680 ;;  current_chan    1    2[BANK0 ] unsigned char 
  8681 ;; Return value:  Size  Location     Type
  8682 ;;                  2    0[BANK0 ] int 
  8683 ;; Registers used:
  8684 ;;		wreg, fsr1l, fsr1h, status,2, status,0
  8685 ;; Tracked objects:
  8686 ;;		On entry : 0/0
  8687 ;;		On exit  : 0/0
  8688 ;;		Unchanged: 0/0
  8689 ;; Data sizes:     COMMON   BANK0   BANK1   BANK2   BANK3   BANK4   BANK5   BANK6   BANK7   BANK8   BANK9  BANK10  BANK1
      +1  BANK12  BANK13  BANK14  BANK15  BANK16  BANK17  BANK18  BANK19  BANK20  BANK21  BANK22  BANK23  BANK24  BANK25
  8690 ;;      Params:         0       2       0       0       0       0       0       0       0       0       0       0       
      +0       0       0       0       0       0       0       0       0       0       0       0       0       0       0
  8691 ;;      Locals:         0       1       0       0       0       0       0       0       0       0       0       0       
      +0       0       0       0       0       0       0       0       0       0       0       0       0       0       0
  8692 ;;      Temps:          0       0       0       0       0       0       0       0       0       0       0       0       
      +0       0       0       0       0       0       0       0       0       0       0       0       0       0       0
  8693 ;;      Totals:         0       3       0       0       0       0       0       0       0       0       0       0       
      +0       0       0       0       0       0       0       0       0       0       0       0       0       0       0
  8694 ;;Total ram usage:        3 bytes
  8695 ;; Hardware stack levels used: 1
  8696 ;; Hardware stack levels required when called: 4
  8697 ;; This function calls:
  8698 ;;		Nothing
  8699 ;; This function is called by:
  8700 ;;		_main
  8701 ;;		_CapTouch_Get_Debug_Data
  8702 ;; This function uses a non-reentrant model
  8703 ;;
  8704                           
  8705     0D4B                     _CapTouch_Get_RawDifferentialADC:	
  8706                           ;psect for function _CapTouch_Get_RawDifferentialADC
  8707                           
  8708                           
  8709                           ;incstack = 0
  8710                           ; Regs used in _CapTouch_Get_RawDifferentialADC: [wreg+fsr1l+fsr1h+status,2+status,0]
  8711                           ;CapTouch_Get_RawDifferentialADC@current_channel stored from wreg
  8712     0D4B  0020               	movlb	0	; select bank0
  8713     0D4C  00A2               	movwf	CapTouch_Get_RawDifferentialADC@current_channel
  8714     0D4D                     l3329:
  8715                           
  8716                           ;captouch.c: 320: return CapTouch.RawDiffADC[current_channel];
  8717     0D4D  3522               	lslf	CapTouch_Get_RawDifferentialADC@current_channel,w
  8718     0D4E  3E2F               	addlw	(low ((_CapTouch| (0+256)+15)))& (0+255)
  8719     0D4F  0086               	movwf	6
  8720     0D50  3001               	movlw	1	; select bank2/3
  8721     0D51  0087               	movwf	7
  8722     0D52  3F40               	moviw [0]fsr1
  8723     0D53  00A0               	movwf	?_CapTouch_Get_RawDifferentialADC
  8724     0D54  3F41               	moviw [1]fsr1
  8725     0D55  00A1               	movwf	?_CapTouch_Get_RawDifferentialADC+1
  8726     0D56                     l242:
  8727     0D56  0008               	return
  8728     0D57                     __end_of_CapTouch_Get_RawDifferentialADC:
  8729                           
  8730                           	psect	text41
  8731     0D3F                     __ptext41:	
  8732 ;; *************** function _CapTouch_Get_Calibration_Value *****************
  8733 ;; Defined at:
  8734 ;;		line 323 in file "captouch.c"
  8735 ;; Parameters:    Size  Location     Type
  8736 ;;  current_chan    1    wreg     unsigned char 
  8737 ;; Auto vars:     Size  Location     Type
  8738 ;;  current_chan    1    2[BANK0 ] unsigned char 
  8739 ;; Return value:  Size  Location     Type
  8740 ;;                  2    0[BANK0 ] int 
  8741 ;; Registers used:
  8742 ;;		wreg, fsr1l, fsr1h, status,2, status,0
  8743 ;; Tracked objects:
  8744 ;;		On entry : 0/0
  8745 ;;		On exit  : 0/0
  8746 ;;		Unchanged: 0/0
  8747 ;; Data sizes:     COMMON   BANK0   BANK1   BANK2   BANK3   BANK4   BANK5   BANK6   BANK7   BANK8   BANK9  BANK10  BANK1
      +1  BANK12  BANK13  BANK14  BANK15  BANK16  BANK17  BANK18  BANK19  BANK20  BANK21  BANK22  BANK23  BANK24  BANK25
  8748 ;;      Params:         0       2       0       0       0       0       0       0       0       0       0       0       
      +0       0       0       0       0       0       0       0       0       0       0       0       0       0       0
  8749 ;;      Locals:         0       1       0       0       0       0       0       0       0       0       0       0       
      +0       0       0       0       0       0       0       0       0       0       0       0       0       0       0
  8750 ;;      Temps:          0       0       0       0       0       0       0       0       0       0       0       0       
      +0       0       0       0       0       0       0       0       0       0       0       0       0       0       0
  8751 ;;      Totals:         0       3       0       0       0       0       0       0       0       0       0       0       
      +0       0       0       0       0       0       0       0       0       0       0       0       0       0       0
  8752 ;;Total ram usage:        3 bytes
  8753 ;; Hardware stack levels used: 1
  8754 ;; Hardware stack levels required when called: 4
  8755 ;; This function calls:
  8756 ;;		Nothing
  8757 ;; This function is called by:
  8758 ;;		_main
  8759 ;;		_CapTouch_Get_Debug_Data
  8760 ;; This function uses a non-reentrant model
  8761 ;;
  8762                           
  8763     0D3F                     _CapTouch_Get_Calibration_Value:	
  8764                           ;psect for function _CapTouch_Get_Calibration_Value
  8765                           
  8766                           
  8767                           ;incstack = 0
  8768                           ; Regs used in _CapTouch_Get_Calibration_Value: [wreg+fsr1l+fsr1h+status,2+status,0]
  8769                           ;CapTouch_Get_Calibration_Value@current_channel stored from wreg
  8770     0D3F  0020               	movlb	0	; select bank0
  8771     0D40  00A2               	movwf	CapTouch_Get_Calibration_Value@current_channel
  8772     0D41                     l3317:
  8773                           
  8774                           ;captouch.c: 324: return CapTouch.CalibrationValue[current_channel];
  8775     0D41  3522               	lslf	CapTouch_Get_Calibration_Value@current_channel,w
  8776     0D42  3E23               	addlw	(low ((_CapTouch| (0+256)+3)))& (0+255)
  8777     0D43  0086               	movwf	6
  8778     0D44  3001               	movlw	1	; select bank2/3
  8779     0D45  0087               	movwf	7
  8780     0D46  3F40               	moviw [0]fsr1
  8781     0D47  00A0               	movwf	?_CapTouch_Get_Calibration_Value
  8782     0D48  3F41               	moviw [1]fsr1
  8783     0D49  00A1               	movwf	?_CapTouch_Get_Calibration_Value+1
  8784     0D4A                     l245:
  8785     0D4A  0008               	return
  8786     0D4B                     __end_of_CapTouch_Get_Calibration_Value:
  8787                           
  8788                           	psect	intentry
  8789     0004                     __pintentry:	
  8790 ;; *************** function _ISRs *****************
  8791 ;; Defined at:
  8792 ;;		line 87 in file "main.c"
  8793 ;; Parameters:    Size  Location     Type
  8794 ;;		None
  8795 ;; Auto vars:     Size  Location     Type
  8796 ;;		None
  8797 ;; Return value:  Size  Location     Type
  8798 ;;                  1    wreg      void 
  8799 ;; Registers used:
  8800 ;;		wreg, fsr1l, fsr1h, status,2, status,0, pclath, cstack
  8801 ;; Tracked objects:
  8802 ;;		On entry : 0/0
  8803 ;;		On exit  : 0/0
  8804 ;;		Unchanged: 0/0
  8805 ;; Data sizes:     COMMON   BANK0   BANK1   BANK2   BANK3   BANK4   BANK5   BANK6   BANK7   BANK8   BANK9  BANK10  BANK1
      +1  BANK12  BANK13  BANK14  BANK15  BANK16  BANK17  BANK18  BANK19  BANK20  BANK21  BANK22  BANK23  BANK24  BANK25
  8806 ;;      Params:         0       0       0       0       0       0       0       0       0       0       0       0       
      +0       0       0       0       0       0       0       0       0       0       0       0       0       0       0
  8807 ;;      Locals:         0       0       0       0       0       0       0       0       0       0       0       0       
      +0       0       0       0       0       0       0       0       0       0       0       0       0       0       0
  8808 ;;      Temps:          0       0       0       0       0       0       0       0       0       0       0       0       
      +0       0       0       0       0       0       0       0       0       0       0       0       0       0       0
  8809 ;;      Totals:         0       0       0       0       0       0       0       0       0       0       0       0       
      +0       0       0       0       0       0       0       0       0       0       0       0       0       0       0
  8810 ;;Total ram usage:        0 bytes
  8811 ;; Hardware stack levels used: 1
  8812 ;; Hardware stack levels required when called: 3
  8813 ;; This function calls:
  8814 ;;		_Timebase_Interrupt_Service_Routine
  8815 ;; This function is called by:
  8816 ;;		Interrupt level 1
  8817 ;; This function uses a non-reentrant model
  8818 ;;
  8819                           
  8820     0004                     _ISRs:
  8821                           
  8822                           ;incstack = 0
  8823     0004  147E               	bsf	int$flags,0	;set compiler interrupt flag (level 1)
  8824                           
  8825                           ; Regs used in _ISRs: [wreg+fsr1l+fsr1h+status,2+status,0+pclath+cstack]
  8826     0005  3180               	pagesel	$
  8827     0006                     i1l3587:
  8828                           
  8829                           ;main.c: 89: Timebase_Interrupt_Service_Routine();
  8830     0006  318D  257C  3180   	fcall	_Timebase_Interrupt_Service_Routine
  8831     0009                     i1l35:
  8832     0009  107E               	bcf	int$flags,0	;clear compiler interrupt flag (level 1)
  8833     000A  0009               	retfie
  8834     000B                     __end_of_ISRs:
  8835                           
  8836                           	psect	text43
  8837     0D7C                     __ptext43:	
  8838 ;; *************** function _Timebase_Interrupt_Service_Routine *****************
  8839 ;; Defined at:
  8840 ;;		line 202 in file "timebase.c"
  8841 ;; Parameters:    Size  Location     Type
  8842 ;;		None
  8843 ;; Auto vars:     Size  Location     Type
  8844 ;;		None
  8845 ;; Return value:  Size  Location     Type
  8846 ;;                  1    wreg      void 
  8847 ;; Registers used:
  8848 ;;		wreg, fsr1l, fsr1h, status,2, status,0, pclath, cstack
  8849 ;; Tracked objects:
  8850 ;;		On entry : 0/0
  8851 ;;		On exit  : 0/0
  8852 ;;		Unchanged: 0/0
  8853 ;; Data sizes:     COMMON   BANK0   BANK1   BANK2   BANK3   BANK4   BANK5   BANK6   BANK7   BANK8   BANK9  BANK10  BANK1
      +1  BANK12  BANK13  BANK14  BANK15  BANK16  BANK17  BANK18  BANK19  BANK20  BANK21  BANK22  BANK23  BANK24  BANK25
  8854 ;;      Params:         0       0       0       0       0       0       0       0       0       0       0       0       
      +0       0       0       0       0       0       0       0       0       0       0       0       0       0       0
  8855 ;;      Locals:         0       0       0       0       0       0       0       0       0       0       0       0       
      +0       0       0       0       0       0       0       0       0       0       0       0       0       0       0
  8856 ;;      Temps:          1       0       0       0       0       0       0       0       0       0       0       0       
      +0       0       0       0       0       0       0       0       0       0       0       0       0       0       0
  8857 ;;      Totals:         1       0       0       0       0       0       0       0       0       0       0       0       
      +0       0       0       0       0       0       0       0       0       0       0       0       0       0       0
  8858 ;;Total ram usage:        1 bytes
  8859 ;; Hardware stack levels used: 1
  8860 ;; Hardware stack levels required when called: 2
  8861 ;; This function calls:
  8862 ;;		_Timebase_ISR_Executables
  8863 ;; This function is called by:
  8864 ;;		_ISRs
  8865 ;; This function uses a non-reentrant model
  8866 ;;
  8867                           
  8868     0D7C                     _Timebase_Interrupt_Service_Routine:	
  8869                           ;psect for function _Timebase_Interrupt_Service_Routine
  8870                           
  8871     0D7C                     i1l3333:	
  8872                           ;incstack = 0
  8873                           ; Regs used in _Timebase_Interrupt_Service_Routine: [wreg+fsr1l+fsr1h+status,2+status,0+
      +                          pclath+cstack]
  8874                           
  8875                           
  8876                           ;timebase.c: 203: if(PIR0 & (1<<0x05)){
  8877     0D7C  0020               	movlb	0	; select bank0
  8878     0D7D  1E90               	btfss	16,5	;volatile
  8879     0D7E  2D80               	goto	u312_21
  8880     0D7F  2D81               	goto	u312_20
  8881     0D80                     u312_21:
  8882     0D80  2D89               	goto	i1l632
  8883     0D81                     u312_20:
  8884     0D81                     i1l3335:
  8885                           
  8886                           ;timebase.c: 204: Timebase_ISR_Executables();
  8887     0D81  3187  2766  318D   	fcall	_Timebase_ISR_Executables
  8888     0D84                     i1l3337:
  8889                           
  8890                           ;timebase.c: 205: PIR0&=~(1<<0x05);
  8891     0D84  30DF               	movlw	223
  8892     0D85  00FA               	movwf	??_Timebase_Interrupt_Service_Routine
  8893     0D86  087A               	movf	??_Timebase_Interrupt_Service_Routine,w
  8894     0D87  0020               	movlb	0	; select bank0
  8895     0D88  0590               	andwf	16,f	;volatile
  8896     0D89                     i1l632:
  8897     0D89  0008               	return
  8898     0D8A                     __end_of_Timebase_Interrupt_Service_Routine:
  8899                           
  8900                           	psect	text44
  8901     0766                     __ptext44:	
  8902 ;; *************** function _Timebase_ISR_Executables *****************
  8903 ;; Defined at:
  8904 ;;		line 190 in file "timebase.c"
  8905 ;; Parameters:    Size  Location     Type
  8906 ;;		None
  8907 ;; Auto vars:     Size  Location     Type
  8908 ;;		None
  8909 ;; Return value:  Size  Location     Type
  8910 ;;                  1    wreg      void 
  8911 ;; Registers used:
  8912 ;;		wreg, fsr1l, fsr1h, status,2, status,0, pclath, cstack
  8913 ;; Tracked objects:
  8914 ;;		On entry : 0/0
  8915 ;;		On exit  : 0/0
  8916 ;;		Unchanged: 0/0
  8917 ;; Data sizes:     COMMON   BANK0   BANK1   BANK2   BANK3   BANK4   BANK5   BANK6   BANK7   BANK8   BANK9  BANK10  BANK1
      +1  BANK12  BANK13  BANK14  BANK15  BANK16  BANK17  BANK18  BANK19  BANK20  BANK21  BANK22  BANK23  BANK24  BANK25
  8918 ;;      Params:         0       0       0       0       0       0       0       0       0       0       0       0       
      +0       0       0       0       0       0       0       0       0       0       0       0       0       0       0
  8919 ;;      Locals:         0       0       0       0       0       0       0       0       0       0       0       0       
      +0       0       0       0       0       0       0       0       0       0       0       0       0       0       0
  8920 ;;      Temps:          0       0       0       0       0       0       0       0       0       0       0       0       
      +0       0       0       0       0       0       0       0       0       0       0       0       0       0       0
  8921 ;;      Totals:         0       0       0       0       0       0       0       0       0       0       0       0       
      +0       0       0       0       0       0       0       0       0       0       0       0       0       0       0
  8922 ;;Total ram usage:        0 bytes
  8923 ;; Hardware stack levels used: 1
  8924 ;; Hardware stack levels required when called: 1
  8925 ;; This function calls:
  8926 ;;		_Timebase_Set_Timer_Reset_Request_Status
  8927 ;;		i1___llmod
  8928 ;; This function is called by:
  8929 ;;		_Timebase_Interrupt_Service_Routine
  8930 ;; This function uses a non-reentrant model
  8931 ;;
  8932                           
  8933     0766                     _Timebase_ISR_Executables:	
  8934                           ;psect for function _Timebase_ISR_Executables
  8935                           
  8936     0766                     i1l3195:	
  8937                           ;incstack = 0
  8938                           ; Regs used in _Timebase_ISR_Executables: [wreg+fsr1l+fsr1h+status,2+status,0+pclath+cst
      +                          ack]
  8939                           
  8940                           
  8941                           ;timebase.c: 191: Timebase.ValueSubSeconds++;
  8942     0766  3001               	movlw	1
  8943     0767  0021               	movlb	1	; select bank1
  8944     0768  07DB               	addwf	(_Timebase^(0+128)+7),f	;volatile
  8945     0769  3000               	movlw	0
  8946     076A  3DDC               	addwfc	((_Timebase+1)^(0+128)+7),f	;volatile
  8947     076B  3000               	movlw	0
  8948     076C  3DDD               	addwfc	((_Timebase+2)^(0+128)+7),f	;volatile
  8949     076D  3000               	movlw	0
  8950     076E  3DDE               	addwfc	((_Timebase+3)^(0+128)+7),f	;volatile
  8951     076F                     i1l3197:
  8952                           
  8953                           ;timebase.c: 192: if((Timebase.ValueSubSeconds%Timebase.SubSecondsToSecondsFactor)==0){
  8954     076F  0855               	movf	(_Timebase^(0+128)+1),w	;volatile
  8955     0770  00F0               	movwf	i1___llmod@divisor
  8956     0771  0856               	movf	((_Timebase+1)^(0+128)+1),w	;volatile
  8957     0772  00F1               	movwf	i1___llmod@divisor+1
  8958     0773  01F2               	clrf	i1___llmod@divisor+2
  8959     0774  01F3               	clrf	i1___llmod@divisor+3
  8960     0775  3007               	movlw	7
  8961     0776  3ED4               	addlw	(low (_Timebase| 0))& (0+255)
  8962     0777  0086               	movwf	6
  8963     0778  0187               	clrf	7
  8964     0779  3F40               	moviw [0]fsr1
  8965     077A  00F4               	movwf	i1___llmod@dividend
  8966     077B  3F41               	moviw [1]fsr1
  8967     077C  00F5               	movwf	i1___llmod@dividend+1
  8968     077D  3F42               	moviw [2]fsr1
  8969     077E  00F6               	movwf	i1___llmod@dividend+2
  8970     077F  3F43               	moviw [3]fsr1
  8971     0780  00F7               	movwf	i1___llmod@dividend+3
  8972     0781  3186  26D4  3187   	fcall	i1___llmod
  8973     0784  0873               	movf	?i1___llmod+3,w
  8974     0785  0472               	iorwf	?i1___llmod+2,w
  8975     0786  0471               	iorwf	?i1___llmod+1,w
  8976     0787  0470               	iorwf	?i1___llmod,w
  8977     0788  1D03               	skipz
  8978     0789  2F8B               	goto	u302_21
  8979     078A  2F8C               	goto	u302_20
  8980     078B                     u302_21:
  8981     078B  2FA4               	goto	i1l628
  8982     078C                     u302_20:
  8983     078C                     i1l3199:
  8984                           
  8985                           ;timebase.c: 193: Timebase.ValueSeconds++;
  8986     078C  3001               	movlw	1
  8987     078D  0021               	movlb	1	; select bank1
  8988     078E  07DF               	addwf	(_Timebase^(0+128)+11),f	;volatile
  8989     078F  3000               	movlw	0
  8990     0790  3DE0               	addwfc	((_Timebase+1)^(0+128)+11),f	;volatile
  8991     0791  3000               	movlw	0
  8992     0792  3DE1               	addwfc	((_Timebase+2)^(0+128)+11),f	;volatile
  8993     0793  3000               	movlw	0
  8994     0794  3DE2               	addwfc	((_Timebase+3)^(0+128)+11),f	;volatile
  8995     0795                     i1l3201:
  8996                           
  8997                           ;timebase.c: 194: if(Timebase.ValueSubSeconds>86400000){
  8998     0795  3001               	movlw	1
  8999     0796  025B               	subwf	(_Timebase^(0+128)+7),w	;volatile
  9000     0797  305C               	movlw	92
  9001     0798  3B5C               	subwfb	((_Timebase+1)^(0+128)+7),w	;volatile
  9002     0799  3026               	movlw	38
  9003     079A  3B5D               	subwfb	((_Timebase+2)^(0+128)+7),w	;volatile
  9004     079B  3005               	movlw	5
  9005     079C  3B5E               	subwfb	((_Timebase+3)^(0+128)+7),w	;volatile
  9006     079D  1C03               	btfss	3,0
  9007     079E  2FA0               	goto	u303_21
  9008     079F  2FA1               	goto	u303_20
  9009     07A0                     u303_21:
  9010     07A0  2FA4               	goto	i1l628
  9011     07A1                     u303_20:
  9012     07A1                     i1l3203:
  9013                           
  9014                           ;timebase.c: 195: Timebase_Set_Timer_Reset_Request_Status();
  9015     07A1  318D  2509  3187   	fcall	_Timebase_Set_Timer_Reset_Request_Status
  9016     07A4                     i1l628:
  9017     07A4  0008               	return
  9018     07A5                     __end_of_Timebase_ISR_Executables:
  9019                           
  9020                           	psect	text45
  9021     06D4                     __ptext45:	
  9022 ;; *************** function i1___llmod *****************
  9023 ;; Defined at:
  9024 ;;		line 5 in file "C:\Program Files\Microchip\xc8\v2.40\pic\sources\c90\common\llmod.c"
  9025 ;; Parameters:    Size  Location     Type
  9026 ;;  divisor         4    0[COMMON] unsigned long 
  9027 ;;  dividend        4    4[COMMON] unsigned long 
  9028 ;; Auto vars:     Size  Location     Type
  9029 ;;  counter         1    9[COMMON] unsigned char 
  9030 ;; Return value:  Size  Location     Type
  9031 ;;                  4    0[COMMON] unsigned long 
  9032 ;; Registers used:
  9033 ;;		wreg, status,2, status,0
  9034 ;; Tracked objects:
  9035 ;;		On entry : 0/0
  9036 ;;		On exit  : 0/0
  9037 ;;		Unchanged: 0/0
  9038 ;; Data sizes:     COMMON   BANK0   BANK1   BANK2   BANK3   BANK4   BANK5   BANK6   BANK7   BANK8   BANK9  BANK10  BANK1
      +1  BANK12  BANK13  BANK14  BANK15  BANK16  BANK17  BANK18  BANK19  BANK20  BANK21  BANK22  BANK23  BANK24  BANK25
  9039 ;;      Params:         8       0       0       0       0       0       0       0       0       0       0       0       
      +0       0       0       0       0       0       0       0       0       0       0       0       0       0       0
  9040 ;;      Locals:         1       0       0       0       0       0       0       0       0       0       0       0       
      +0       0       0       0       0       0       0       0       0       0       0       0       0       0       0
  9041 ;;      Temps:          1       0       0       0       0       0       0       0       0       0       0       0       
      +0       0       0       0       0       0       0       0       0       0       0       0       0       0       0
  9042 ;;      Totals:        10       0       0       0       0       0       0       0       0       0       0       0       
      +0       0       0       0       0       0       0       0       0       0       0       0       0       0       0
  9043 ;;Total ram usage:       10 bytes
  9044 ;; Hardware stack levels used: 1
  9045 ;; This function calls:
  9046 ;;		Nothing
  9047 ;; This function is called by:
  9048 ;;		_Timebase_ISR_Executables
  9049 ;; This function uses a non-reentrant model
  9050 ;;
  9051                           
  9052     06D4                     i1___llmod:	
  9053                           ;psect for function i1___llmod
  9054                           
  9055     06D4                     i1l2923:	
  9056                           ;incstack = 0
  9057                           ; Regs used in i1___llmod: [wreg+status,2+status,0]
  9058                           
  9059     06D4  0873               	movf	i1___llmod@divisor+3,w
  9060     06D5  0472               	iorwf	i1___llmod@divisor+2,w
  9061     06D6  0471               	iorwf	i1___llmod@divisor+1,w
  9062     06D7  0470               	iorwf	i1___llmod@divisor,w
  9063     06D8  1903               	skipnz
  9064     06D9  2EDB               	goto	u244_21
  9065     06DA  2EDC               	goto	u244_20
  9066     06DB                     u244_21:
  9067     06DB  2F15               	goto	i1l2939
  9068     06DC                     u244_20:
  9069     06DC                     i1l2925:
  9070     06DC  01F9               	clrf	i1___llmod@counter
  9071     06DD  0AF9               	incf	i1___llmod@counter,f
  9072     06DE  2EEA               	goto	i1l2929
  9073     06DF                     i1l2927:
  9074     06DF  3001               	movlw	1
  9075     06E0                     u245_25:
  9076     06E0  35F0               	lslf	i1___llmod@divisor,f
  9077     06E1  0DF1               	rlf	i1___llmod@divisor+1,f
  9078     06E2  0DF2               	rlf	i1___llmod@divisor+2,f
  9079     06E3  0DF3               	rlf	i1___llmod@divisor+3,f
  9080     06E4  0B89               	decfsz	9,f
  9081     06E5  2EE0               	goto	u245_25
  9082     06E6  3001               	movlw	1
  9083     06E7  00F8               	movwf	??i1___llmod
  9084     06E8  0878               	movf	??i1___llmod,w
  9085     06E9  07F9               	addwf	i1___llmod@counter,f
  9086     06EA                     i1l2929:
  9087     06EA  1FF3               	btfss	i1___llmod@divisor+3,7
  9088     06EB  2EED               	goto	u246_21
  9089     06EC  2EEE               	goto	u246_20
  9090     06ED                     u246_21:
  9091     06ED  2EDF               	goto	i1l2927
  9092     06EE                     u246_20:
  9093     06EE                     i1l2931:
  9094     06EE  0873               	movf	i1___llmod@divisor+3,w
  9095     06EF  0277               	subwf	i1___llmod@dividend+3,w
  9096     06F0  1D03               	skipz
  9097     06F1  2EFC               	goto	u247_25
  9098     06F2  0872               	movf	i1___llmod@divisor+2,w
  9099     06F3  0276               	subwf	i1___llmod@dividend+2,w
  9100     06F4  1D03               	skipz
  9101     06F5  2EFC               	goto	u247_25
  9102     06F6  0871               	movf	i1___llmod@divisor+1,w
  9103     06F7  0275               	subwf	i1___llmod@dividend+1,w
  9104     06F8  1D03               	skipz
  9105     06F9  2EFC               	goto	u247_25
  9106     06FA  0870               	movf	i1___llmod@divisor,w
  9107     06FB  0274               	subwf	i1___llmod@dividend,w
  9108     06FC                     u247_25:
  9109     06FC  1C03               	skipc
  9110     06FD  2EFF               	goto	u247_21
  9111     06FE  2F00               	goto	u247_20
  9112     06FF                     u247_21:
  9113     06FF  2F08               	goto	i1l2935
  9114     0700                     u247_20:
  9115     0700                     i1l2933:
  9116     0700  0870               	movf	i1___llmod@divisor,w
  9117     0701  02F4               	subwf	i1___llmod@dividend,f
  9118     0702  0871               	movf	i1___llmod@divisor+1,w
  9119     0703  3BF5               	subwfb	i1___llmod@dividend+1,f
  9120     0704  0872               	movf	i1___llmod@divisor+2,w
  9121     0705  3BF6               	subwfb	i1___llmod@dividend+2,f
  9122     0706  0873               	movf	i1___llmod@divisor+3,w
  9123     0707  3BF7               	subwfb	i1___llmod@dividend+3,f
  9124     0708                     i1l2935:
  9125     0708  3001               	movlw	1
  9126     0709                     u248_25:
  9127     0709  36F3               	lsrf	i1___llmod@divisor+3,f
  9128     070A  0CF2               	rrf	i1___llmod@divisor+2,f
  9129     070B  0CF1               	rrf	i1___llmod@divisor+1,f
  9130     070C  0CF0               	rrf	i1___llmod@divisor,f
  9131     070D  0B89               	decfsz	9,f
  9132     070E  2F09               	goto	u248_25
  9133     070F                     i1l2937:
  9134     070F  3001               	movlw	1
  9135     0710  02F9               	subwf	i1___llmod@counter,f
  9136     0711  1D03               	btfss	3,2
  9137     0712  2F14               	goto	u249_21
  9138     0713  2F15               	goto	u249_20
  9139     0714                     u249_21:
  9140     0714  2EEE               	goto	i1l2931
  9141     0715                     u249_20:
  9142     0715                     i1l2939:
  9143     0715  0877               	movf	i1___llmod@dividend+3,w
  9144     0716  00F3               	movwf	?i1___llmod+3
  9145     0717  0876               	movf	i1___llmod@dividend+2,w
  9146     0718  00F2               	movwf	?i1___llmod+2
  9147     0719  0875               	movf	i1___llmod@dividend+1,w
  9148     071A  00F1               	movwf	?i1___llmod+1
  9149     071B  0874               	movf	i1___llmod@dividend,w
  9150     071C  00F0               	movwf	?i1___llmod
  9151     071D                     i1l1129:
  9152     071D  0008               	return
  9153     071E                     __end_ofi1___llmod:
  9154                           
  9155                           	psect	text46
  9156     0D09                     __ptext46:	
  9157 ;; *************** function _Timebase_Set_Timer_Reset_Request_Status *****************
  9158 ;; Defined at:
  9159 ;;		line 138 in file "timebase.c"
  9160 ;; Parameters:    Size  Location     Type
  9161 ;;		None
  9162 ;; Auto vars:     Size  Location     Type
  9163 ;;		None
  9164 ;; Return value:  Size  Location     Type
  9165 ;;                  1    wreg      void 
  9166 ;; Registers used:
  9167 ;;		None
  9168 ;; Tracked objects:
  9169 ;;		On entry : 0/0
  9170 ;;		On exit  : 0/0
  9171 ;;		Unchanged: 0/0
  9172 ;; Data sizes:     COMMON   BANK0   BANK1   BANK2   BANK3   BANK4   BANK5   BANK6   BANK7   BANK8   BANK9  BANK10  BANK1
      +1  BANK12  BANK13  BANK14  BANK15  BANK16  BANK17  BANK18  BANK19  BANK20  BANK21  BANK22  BANK23  BANK24  BANK25
  9173 ;;      Params:         0       0       0       0       0       0       0       0       0       0       0       0       
      +0       0       0       0       0       0       0       0       0       0       0       0       0       0       0
  9174 ;;      Locals:         0       0       0       0       0       0       0       0       0       0       0       0       
      +0       0       0       0       0       0       0       0       0       0       0       0       0       0       0
  9175 ;;      Temps:          0       0       0       0       0       0       0       0       0       0       0       0       
      +0       0       0       0       0       0       0       0       0       0       0       0       0       0       0
  9176 ;;      Totals:         0       0       0       0       0       0       0       0       0       0       0       0       
      +0       0       0       0       0       0       0       0       0       0       0       0       0       0       0
  9177 ;;Total ram usage:        0 bytes
  9178 ;; Hardware stack levels used: 1
  9179 ;; This function calls:
  9180 ;;		Nothing
  9181 ;; This function is called by:
  9182 ;;		_Timebase_ISR_Executables
  9183 ;; This function uses a non-reentrant model
  9184 ;;
  9185                           
  9186     0D09                     _Timebase_Set_Timer_Reset_Request_Status:	
  9187                           ;psect for function _Timebase_Set_Timer_Reset_Request_Status
  9188                           
  9189     0D09                     i1l2875:	
  9190                           ;incstack = 0
  9191                           ; Regs used in _Timebase_Set_Timer_Reset_Request_Status: []
  9192                           
  9193                           
  9194                           ;timebase.c: 139: Timebase.Status|=(1<<6);
  9195     0D09  0021               	movlb	1	; select bank1
  9196     0D0A  1754               	bsf	_Timebase^(0+128),6	;volatile
  9197     0D0B                     i1l593:
  9198     0D0B  0008               	return
  9199     0D0C                     __end_of_Timebase_Set_Timer_Reset_Request_Status:
  9200     007E                     btemp	set	126	;btemp
  9201     007E                     int$flags	set	126
  9202     007E                     wtemp0	set	126
  9203     2720                     
  9204                           	psect	config
  9205                           
  9206                           ;Config register CONFIG1 @ 0x8007
  9207                           ;	FEXTOSC External Oscillator mode Selection bits
  9208                           ;	FEXTOSC = OFF, Oscillator not enabled
  9209                           ;	Power-up default value for COSC bits
  9210                           ;	RSTOSC = HFINT32, HFINTOSC with 2x PLL (32MHz)
  9211                           ;	Clock Out Enable bit
  9212                           ;	CLKOUTEN = OFF, CLKOUT function is disabled; I/O or oscillator function on OSC2
  9213                           ;	Clock Switch Enable bit
  9214                           ;	CSWEN = ON, Writing to NOSC and NDIV is allowed
  9215                           ;	Fail-Safe Clock Monitor Enable
  9216                           ;	FCMEN = ON, Fail-Safe Clock Monitor is enabled
  9217     8007                     	org	32775
  9218     8007  3F8C               	dw	16268
  9219                           
  9220                           ;Config register CONFIG2 @ 0x8008
  9221                           ;	Master Clear Enable bit
  9222                           ;	MCLRE = ON, MCLR/VPP pin function is MCLR; Weak pull-up enabled
  9223                           ;	Power-up Timer Enable bit
  9224                           ;	PWRTE = OFF, PWRT disabled
  9225                           ;	Watchdog Timer Enable bits
  9226                           ;	WDTE = OFF, WDT disabled; SWDTEN is ignored
  9227                           ;	Low-power BOR enable bit
  9228                           ;	LPBOREN = OFF, ULPBOR disabled
  9229                           ;	Brown-out Reset Enable bits
  9230                           ;	BOREN = ON, Brown-out Reset enabled, SBOREN bit ignored
  9231                           ;	Brown-out Reset Voltage selection bit
  9232                           ;	BORV = LOW, Brown-out voltage (Vbor) set to 2.45V
  9233                           ;	PPSLOCK bit One-Way Set Enable bit
  9234                           ;	PPS1WAY = OFF, The PPSLOCK bit can be set and cleared repeatedly (subject to the unloc
      +                          k sequence)
  9235                           ;	Stack Overflow/Underflow Reset Enable bit
  9236                           ;	STVREN = ON, Stack Overflow or Underflow will cause a Reset
  9237                           ;	Debugger enable bit
  9238                           ;	DEBUG = OFF, Background debugger disabled
  9239     8008                     	org	32776
  9240     8008  37F3               	dw	14323
  9241                           
  9242                           ;Config register CONFIG3 @ 0x8009
  9243                           ;	User NVM self-write protection bits
  9244                           ;	WRT = OFF, Write protection off
  9245                           ;	Low Voltage Programming Enable bit
  9246                           ;	LVP = ON, Low Voltage programming enabled. MCLR/VPP pin function is MCLR. MCLRE config
      +                          uration bit is ignored.
  9247     8009                     	org	32777
  9248     8009  3FFF               	dw	16383
  9249                           
  9250                           ;Config register CONFIG4 @ 0x800A
  9251                           ;	User NVM Program Memory Code Protection bit
  9252                           ;	CP = OFF, User NVM code protection disabled
  9253                           ;	Data NVM Memory Code Protection bit
  9254                           ;	CPD = OFF, Data NVM code protection disabled
  9255     800A                     	org	32778
  9256     800A  3FFF               	dw	16383

Data Sizes:
    Strings     23
    Constant    0
    Data        51
    BSS         139
    Persistent  32
    Stack       0

Auto Spaces:
    Space          Size  Autos    Used
    COMMON           14     11      12
    BANK0            80     70      77
    BANK1            80      0      77
    BANK2            80      0      77
    BANK3            80      0      28
    BANK4            80      0       0
    BANK5            80      0       0
    BANK6            80      0       0
    BANK7            80      0       0
    BANK8            80      0       0
    BANK9            80      0       0
    BANK10           80      0       0
    BANK11           80      0       0
    BANK12           80      0       0
    BANK13           80      0       0
    BANK14           80      0       0
    BANK15           80      0       0
    BANK16           80      0       0
    BANK17           80      0       0
    BANK18           80      0       0
    BANK19           80      0       0
    BANK20           80      0       0
    BANK21           80      0       0
    BANK22           64      0       0
    BANK23            0      0       0
    BANK24            0      0       0
    BANK25            0      0       0

Pointer List with Targets:

    UART_Transmit_Text@str	PTR unsigned char  size(2) Largest target is 18
		 -> STR_6(CODE[3]), STR_5(CODE[3]), STR_4(CODE[2]), STR_3(CODE[2]), 
		 -> STR_2(CODE[2]), STR_1(CODE[18]), 

    Cooling	PTR struct cooling_t size(1) Largest target is 18
		 -> NULL(NULL[0]), Cooling_Type(BANK3[18]), 


Critical Paths under _main in COMMON

    None.

Critical Paths under _ISRs in COMMON

    _ISRs->_Timebase_Interrupt_Service_Routine
    _Timebase_ISR_Executables->i1___llmod

Critical Paths under _main in BANK0

    _main->_CapTouch_Scan_Sensors
    _UART_Transmit_Text->_UART_Transmit_Byte
    _UART_Transmit_Number->_UART_Transmit_Unsigned_Number
    _UART_Transmit_Unsigned_Number->___lldiv
    _UART_Init->___lldiv
    _Timebase_Init->_Timebase_Timer_Config
    _Timebase_Get_SubSeconds_Value->_Timebase_Add_Token
    _CapTouch_Scan_Sensors->_CapTouch_Check_Touch_Duration
    _CapTouch_Check_Touch_Duration->_CapTouch_Check_Trigger
    _CapTouch_Check_Trigger->_CapTouch_Response
    _CapTouch_Response->_CapTouch_Read_Delta
    _CapTouch_Init->_CapTouch_Calibration
    _CapTouch_Calibration->_CapTouch_Read_Delta
    _CapTouch_Read_Delta->_CapTouch_IIR_Butterworth
    _CapTouch_Precharge_SH_Cap->_CapTouch_ADC_Sample
    _CapTouch_Precharge_Button->_CapTouch_ADC_Sample
    _CapTouch_IIR_Butterworth->___aldiv
    _CapTouch_ADC_Sample2->_CapTouch_ADC_Sample
    _CapTouch_ADC_Sample1->_CapTouch_ADC_Sample

Critical Paths under _ISRs in BANK0

    None.

Critical Paths under _main in BANK1

    None.

Critical Paths under _ISRs in BANK1

    None.

Critical Paths under _main in BANK2

    None.

Critical Paths under _ISRs in BANK2

    None.

Critical Paths under _main in BANK3

    None.

Critical Paths under _ISRs in BANK3

    None.

Critical Paths under _main in BANK4

    None.

Critical Paths under _ISRs in BANK4

    None.

Critical Paths under _main in BANK5

    None.

Critical Paths under _ISRs in BANK5

    None.

Critical Paths under _main in BANK6

    None.

Critical Paths under _ISRs in BANK6

    None.

Critical Paths under _main in BANK7

    None.

Critical Paths under _ISRs in BANK7

    None.

Critical Paths under _main in BANK8

    None.

Critical Paths under _ISRs in BANK8

    None.

Critical Paths under _main in BANK9

    None.

Critical Paths under _ISRs in BANK9

    None.

Critical Paths under _main in BANK10

    None.

Critical Paths under _ISRs in BANK10

    None.

Critical Paths under _main in BANK11

    None.

Critical Paths under _ISRs in BANK11

    None.

Critical Paths under _main in BANK12

    None.

Critical Paths under _ISRs in BANK12

    None.

Critical Paths under _main in BANK13

    None.

Critical Paths under _ISRs in BANK13

    None.

Critical Paths under _main in BANK14

    None.

Critical Paths under _ISRs in BANK14

    None.

Critical Paths under _main in BANK15

    None.

Critical Paths under _ISRs in BANK15

    None.

Critical Paths under _main in BANK16

    None.

Critical Paths under _ISRs in BANK16

    None.

Critical Paths under _main in BANK17

    None.

Critical Paths under _ISRs in BANK17

    None.

Critical Paths under _main in BANK18

    None.

Critical Paths under _ISRs in BANK18

    None.

Critical Paths under _main in BANK19

    None.

Critical Paths under _ISRs in BANK19

    None.

Critical Paths under _main in BANK20

    None.

Critical Paths under _ISRs in BANK20

    None.

Critical Paths under _main in BANK21

    None.

Critical Paths under _ISRs in BANK21

    None.

Critical Paths under _main in BANK22

    None.

Critical Paths under _ISRs in BANK22

    None.

Critical Paths under _main in BANK23

    None.

Critical Paths under _ISRs in BANK23

    None.

Critical Paths under _main in BANK24

    None.

Critical Paths under _ISRs in BANK24

    None.

Critical Paths under _main in BANK25

    None.

Critical Paths under _ISRs in BANK25

    None.

Call Graph Tables:

 ---------------------------------------------------------------------------------
 (Depth) Function   	        Calls       Base Space   Used Autos Params    Refs
 ---------------------------------------------------------------------------------
 (0) _main                                                 8     8      0   10394
                                             69 BANK0      1     1      0
     _CapTouch_Get_Calibration_Value
    _CapTouch_Get_RawDifferentialADC
                      _CapTouch_Init
              _CapTouch_Scan_Sensors
      _Timebase_Get_SubSeconds_Value
                      _Timebase_Init
                          _UART_Init
               _UART_Transmit_Number
                 _UART_Transmit_Text
 ---------------------------------------------------------------------------------
 (1) _UART_Transmit_Text                                   6     4      2     568
                                              1 BANK0      6     4      2
                 _UART_Transmit_Byte
 ---------------------------------------------------------------------------------
 (1) _UART_Transmit_Number                                 4     0      4    1742
                                             30 BANK0      4     0      4
     _CapTouch_Get_Calibration_Value (ARG)
    _CapTouch_Get_RawDifferentialADC (ARG)
                 _UART_Transmit_Byte
      _UART_Transmit_Unsigned_Number
 ---------------------------------------------------------------------------------
 (2) _UART_Transmit_Unsigned_Number                       16    12      4    1273
                                             14 BANK0     16    12      4
                 _UART_Transmit_Byte
                            ___lldiv
                            ___llmod
 ---------------------------------------------------------------------------------
 (3) ___llmod                                             10     2      8     411
                                              0 BANK0     10     2      8
 ---------------------------------------------------------------------------------
 (2) _UART_Transmit_Byte                                   1     1      0      22
                                              0 BANK0      1     1      0
 ---------------------------------------------------------------------------------
 (1) _UART_Init                                           12     8      4     678
                                             14 BANK0     12     8      4
            _UART_Config_Transmitter
                   _UART_Struct_Init
                            ___lldiv
 ---------------------------------------------------------------------------------
 (3) ___lldiv                                             14     6      8     466
                                              0 BANK0     14     6      8
 ---------------------------------------------------------------------------------
 (2) _UART_Struct_Init                                     5     5      0      68
                                              0 BANK0      5     5      0
 ---------------------------------------------------------------------------------
 (2) _UART_Config_Transmitter                              1     1      0       0
                                              0 BANK0      1     1      0
 ---------------------------------------------------------------------------------
 (1) _Timebase_Init                                        0     0      0       0
               _Timebase_Struct_Init
              _Timebase_Timer_Config
 ---------------------------------------------------------------------------------
 (2) _Timebase_Timer_Config                                1     1      0       0
                                              0 BANK0      1     1      0
 ---------------------------------------------------------------------------------
 (2) _Timebase_Struct_Init                                 0     0      0       0
 ---------------------------------------------------------------------------------
 (1) _Timebase_Get_SubSeconds_Value                        4     0      4       0
                                              1 BANK0      4     0      4
                 _Timebase_Add_Token
 ---------------------------------------------------------------------------------
 (2) _Timebase_Add_Token                                   1     1      0       0
                                              0 BANK0      1     1      0
    _Timebase_Total_Tokens_Executing
 ---------------------------------------------------------------------------------
 (3) _Timebase_Total_Tokens_Executing                      0     0      0       0
 ---------------------------------------------------------------------------------
 (1) _CapTouch_Scan_Sensors                                6     2      4    3401
                                             63 BANK0      6     2      4
      _CapTouch_Check_Touch_Duration
      _Timebase_Get_SubSeconds_Value (ARG)
 ---------------------------------------------------------------------------------
 (2) _CapTouch_Check_Touch_Duration                       14    10      4    3235
                                             49 BANK0     14    10      4
             _CapTouch_Check_Trigger
 ---------------------------------------------------------------------------------
 (3) _CapTouch_Check_Trigger                               2     2      0    2760
                                             47 BANK0      2     2      0
                  _CapTouch_Response
 ---------------------------------------------------------------------------------
 (4) _CapTouch_Response                                    6     6      0    2428
                                             41 BANK0      6     6      0
                _CapTouch_Read_Delta
 ---------------------------------------------------------------------------------
 (1) _CapTouch_Init                                        0     0      0    3958
       _CapTouch_ADC_Register_Config
               _CapTouch_Calibration
_CapTouch_IIR_Butterworth_Struct_Ini
               _CapTouch_Struct_Init
 ---------------------------------------------------------------------------------
 (2) _CapTouch_Struct_Init                                 2     2      0     310
                                              0 BANK0      2     2      0
 ---------------------------------------------------------------------------------
 (2) _CapTouch_IIR_Butterworth_Struct_Init                 2     2      0     112
                                              0 BANK0      2     2      0
 ---------------------------------------------------------------------------------
 (2) _CapTouch_Calibration                                23    23      0    3536
                                             41 BANK0     23    23      0
                _CapTouch_Read_Delta
                            ___aldiv
 ---------------------------------------------------------------------------------
 (5) _CapTouch_Read_Delta                                  9     9      0    2318
                                             32 BANK0      9     9      0
               _CapTouch_ADC_Sample1
               _CapTouch_ADC_Sample2
                 _CapTouch_ADC_Sleep
                _CapTouch_ADC_Wakeup
           _CapTouch_IIR_Butterworth
          _CapTouch_Precharge_Button
          _CapTouch_Precharge_SH_Cap
 ---------------------------------------------------------------------------------
 (6) _CapTouch_Precharge_SH_Cap                            1     1      0     155
                                              6 BANK0      1     1      0
                _CapTouch_ADC_Sample
        _CapTouch_Set_Key_Pin_Output
    _CapTouch_Set_Key_Pin_Output_Low
 ---------------------------------------------------------------------------------
 (7) _CapTouch_Set_Key_Pin_Output_Low                      3     3      0      22
                                              0 BANK0      3     3      0
 ---------------------------------------------------------------------------------
 (6) _CapTouch_Precharge_Button                            1     1      0     155
                                              6 BANK0      1     1      0
                _CapTouch_ADC_Sample
        _CapTouch_Set_Key_Pin_Output
   _CapTouch_Set_Key_Pin_Output_High
 ---------------------------------------------------------------------------------
 (7) _CapTouch_Set_Key_Pin_Output_High                     3     3      0      22
                                              0 BANK0      3     3      0
 ---------------------------------------------------------------------------------
 (7) _CapTouch_Set_Key_Pin_Output                          3     3      0      44
                                              0 BANK0      3     3      0
 ---------------------------------------------------------------------------------
 (6) _CapTouch_IIR_Butterworth                            17    13      4    1296
                                             15 BANK0     17    13      4
                            ___aldiv
                             ___lmul
 ---------------------------------------------------------------------------------
 (7) ___lmul                                              12     4      8     396
                                              0 BANK0     12     4      8
 ---------------------------------------------------------------------------------
 (7) ___aldiv                                             15     7      8     604
                                              0 BANK0     15     7      8
 ---------------------------------------------------------------------------------
 (6) _CapTouch_ADC_Wakeup                                  0     0      0       0
 ---------------------------------------------------------------------------------
 (6) _CapTouch_ADC_Sleep                                   1     1      0       0
                                              0 BANK0      1     1      0
 ---------------------------------------------------------------------------------
 (6) _CapTouch_ADC_Sample2                                 1     1      0     155
                                              6 BANK0      1     1      0
                _CapTouch_ADC_Sample
        _CapTouch_Set_Key_Pin_Analog
 ---------------------------------------------------------------------------------
 (6) _CapTouch_ADC_Sample1                                 1     1      0     155
                                              6 BANK0      1     1      0
                _CapTouch_ADC_Sample
        _CapTouch_Set_Key_Pin_Analog
 ---------------------------------------------------------------------------------
 (7) _CapTouch_Set_Key_Pin_Analog                          3     3      0      44
                                              0 BANK0      3     3      0
 ---------------------------------------------------------------------------------
 (7) _CapTouch_ADC_Sample                                  6     4      2      45
                                              0 BANK0      6     4      2
 ---------------------------------------------------------------------------------
 (2) _CapTouch_ADC_Register_Config                         1     1      0       0
                                              0 BANK0      1     1      0
 ---------------------------------------------------------------------------------
 (1) _CapTouch_Get_RawDifferentialADC                      3     1      2      22
                                              0 BANK0      3     1      2
 ---------------------------------------------------------------------------------
 (1) _CapTouch_Get_Calibration_Value                       3     1      2      22
                                              0 BANK0      3     1      2
 ---------------------------------------------------------------------------------
 Estimated maximum stack depth 7
 ---------------------------------------------------------------------------------
 (Depth) Function   	        Calls       Base Space   Used Autos Params    Refs
 ---------------------------------------------------------------------------------
 (8) _ISRs                                                 0     0      0     211
 _Timebase_Interrupt_Service_Routine
 ---------------------------------------------------------------------------------
 (9) _Timebase_Interrupt_Service_Routine                   1     1      0     211
                                             10 COMMON     1     1      0
           _Timebase_ISR_Executables
 ---------------------------------------------------------------------------------
 (10) _Timebase_ISR_Executables                            0     0      0     211
_Timebase_Set_Timer_Reset_Request_St
                          i1___llmod
 ---------------------------------------------------------------------------------
 (11) i1___llmod                                          10     2      8     211
                                              0 COMMON    10     2      8
 ---------------------------------------------------------------------------------
 (11) _Timebase_Set_Timer_Reset_Request_Status             0     0      0       0
 ---------------------------------------------------------------------------------
 Estimated maximum stack depth 11
 ---------------------------------------------------------------------------------

 Call Graph Graphs:

 _main (ROOT)
   _CapTouch_Get_Calibration_Value
   _CapTouch_Get_RawDifferentialADC
   _CapTouch_Init
     _CapTouch_ADC_Register_Config
     _CapTouch_Calibration
       _CapTouch_Read_Delta
         _CapTouch_ADC_Sample1
           _CapTouch_ADC_Sample
           _CapTouch_Set_Key_Pin_Analog
         _CapTouch_ADC_Sample2
           _CapTouch_ADC_Sample
           _CapTouch_Set_Key_Pin_Analog
         _CapTouch_ADC_Sleep
         _CapTouch_ADC_Wakeup
         _CapTouch_IIR_Butterworth
           ___aldiv
           ___lmul
         _CapTouch_Precharge_Button
           _CapTouch_ADC_Sample
           _CapTouch_Set_Key_Pin_Output
           _CapTouch_Set_Key_Pin_Output_High
         _CapTouch_Precharge_SH_Cap
           _CapTouch_ADC_Sample
           _CapTouch_Set_Key_Pin_Output
           _CapTouch_Set_Key_Pin_Output_Low
       ___aldiv
     _CapTouch_IIR_Butterworth_Struct_Init
     _CapTouch_Struct_Init
   _CapTouch_Scan_Sensors
     _CapTouch_Check_Touch_Duration
       _CapTouch_Check_Trigger
         _CapTouch_Response
           _CapTouch_Read_Delta
     _Timebase_Get_SubSeconds_Value (ARG)
       _Timebase_Add_Token
         _Timebase_Total_Tokens_Executing
   _Timebase_Get_SubSeconds_Value
   _Timebase_Init
     _Timebase_Struct_Init
     _Timebase_Timer_Config
   _UART_Init
     _UART_Config_Transmitter
     _UART_Struct_Init
     ___lldiv
   _UART_Transmit_Number
     _CapTouch_Get_Calibration_Value (ARG)
     _CapTouch_Get_RawDifferentialADC (ARG)
     _UART_Transmit_Byte (ARG)
     _UART_Transmit_Unsigned_Number (ARG)
       _UART_Transmit_Byte
       ___lldiv
       ___llmod
   _UART_Transmit_Text
     _UART_Transmit_Byte

 _ISRs (ROOT)
   _Timebase_Interrupt_Service_Routine
     _Timebase_ISR_Executables
       _Timebase_Set_Timer_Reset_Request_Status
       i1___llmod

 Address spaces:
Name               Size   Autos  Total    Cost      Usage
BIGRAM             7F0      0       0       0        0.0%
EEDATA             100      0       0       0        0.0%
NULL                 0      0       0       0        0.0%
CODE                 0      0       0       0        0.0%
BITCOMMON            E      0       0       1        0.0%
BITSFR0              0      0       0       1        0.0%
SFR0                 0      0       0       1        0.0%
COMMON               E      B       C       2       85.7%
BITSFR1              0      0       0       2        0.0%
SFR1                 0      0       0       2        0.0%
BITSFR2              0      0       0       3        0.0%
SFR2                 0      0       0       3        0.0%
STACK                0      0       0       3        0.0%
BITBANK0            50      0       0       4        0.0%
BITSFR3              0      0       0       4        0.0%
SFR3                 0      0       0       4        0.0%
BANK0               50     46      4D       5       96.2%
BITSFR4              0      0       0       5        0.0%
SFR4                 0      0       0       5        0.0%
BITBANK1            50      0       0       6        0.0%
BITSFR5              0      0       0       6        0.0%
SFR5                 0      0       0       6        0.0%
BANK1               50      0      4D       7       96.2%
BITSFR6              0      0       0       7        0.0%
SFR6                 0      0       0       7        0.0%
BITBANK2            50      0       0       8        0.0%
BITSFR7              0      0       0       8        0.0%
SFR7                 0      0       0       8        0.0%
BANK2               50      0      4D       9       96.2%
BITSFR8              0      0       0       9        0.0%
SFR8                 0      0       0       9        0.0%
BITBANK3            50      0       0      10        0.0%
BITSFR9              0      0       0      10        0.0%
SFR9                 0      0       0      10        0.0%
BANK3               50      0      1C      11       35.0%
BITSFR10             0      0       0      11        0.0%
SFR10                0      0       0      11        0.0%
BITBANK4            50      0       0      12        0.0%
BITSFR11             0      0       0      12        0.0%
SFR11                0      0       0      12        0.0%
BANK4               50      0       0      13        0.0%
BITSFR12             0      0       0      13        0.0%
SFR12                0      0       0      13        0.0%
BITSFR13             0      0       0      14        0.0%
SFR13                0      0       0      14        0.0%
ABS                  0      0     10F      14        0.0%
BITBANK5            50      0       0      15        0.0%
BITSFR14             0      0       0      15        0.0%
SFR14                0      0       0      15        0.0%
BANK5               50      0       0      16        0.0%
BITSFR15             0      0       0      16        0.0%
SFR15                0      0       0      16        0.0%
BITBANK6            50      0       0      17        0.0%
BITSFR16             0      0       0      17        0.0%
SFR16                0      0       0      17        0.0%
BANK6               50      0       0      18        0.0%
BITSFR17             0      0       0      18        0.0%
SFR17                0      0       0      18        0.0%
BITBANK7            50      0       0      19        0.0%
BITSFR18             0      0       0      19        0.0%
SFR18                0      0       0      19        0.0%
BANK7               50      0       0      20        0.0%
BITSFR19             0      0       0      20        0.0%
SFR19                0      0       0      20        0.0%
BITBANK8            50      0       0      21        0.0%
BITSFR20             0      0       0      21        0.0%
SFR20                0      0       0      21        0.0%
BANK8               50      0       0      22        0.0%
BITSFR21             0      0       0      22        0.0%
SFR21                0      0       0      22        0.0%
BITBANK9            50      0       0      23        0.0%
BITSFR22             0      0       0      23        0.0%
SFR22                0      0       0      23        0.0%
BANK9               50      0       0      24        0.0%
BITSFR23             0      0       0      24        0.0%
SFR23                0      0       0      24        0.0%
BITBANK10           50      0       0      25        0.0%
BITSFR24             0      0       0      25        0.0%
SFR24                0      0       0      25        0.0%
BANK10              50      0       0      26        0.0%
BITSFR25             0      0       0      26        0.0%
SFR25                0      0       0      26        0.0%
BITBANK11           50      0       0      27        0.0%
BITSFR26             0      0       0      27        0.0%
SFR26                0      0       0      27        0.0%
BITSFR27             0      0       0      28        0.0%
SFR27                0      0       0      28        0.0%
DATA                 0      0     10F      28        0.0%
BANK11              50      0       0      29        0.0%
BITSFR28             0      0       0      29        0.0%
SFR28                0      0       0      29        0.0%
BITBANK12           50      0       0      30        0.0%
BITSFR29             0      0       0      30        0.0%
SFR29                0      0       0      30        0.0%
BANK12              50      0       0      31        0.0%
BITSFR30             0      0       0      31        0.0%
SFR30                0      0       0      31        0.0%
BITBANK13           50      0       0      32        0.0%
BITSFR31             0      0       0      32        0.0%
SFR31                0      0       0      32        0.0%
BANK13              50      0       0      33        0.0%
BITBANK14           50      0       0      34        0.0%
BANK14              50      0       0      35        0.0%
BITBANK15           50      0       0      36        0.0%
BANK15              50      0       0      37        0.0%
BITBANK16           50      0       0      38        0.0%
BANK16              50      0       0      39        0.0%
BITBANK17           50      0       0      40        0.0%
BANK17              50      0       0      41        0.0%
BITBANK18           50      0       0      42        0.0%
BANK18              50      0       0      43        0.0%
BITBANK19           50      0       0      44        0.0%
BANK19              50      0       0      45        0.0%
BITBANK20           50      0       0      46        0.0%
BANK20              50      0       0      47        0.0%
BITBANK21           50      0       0      48        0.0%
BANK21              50      0       0      49        0.0%
BITBANK22           50      0       0      50        0.0%
BANK22              40      0       0      51        0.0%
BITBANK23           50      0       0      52        0.0%
BANK23               0      0       0      53        0.0%
BITBANK24           50      0       0      54        0.0%
BANK24               0      0       0      55        0.0%
BITBANK25           20      0       0      56        0.0%
BANK25               0      0       0      57        0.0%


Microchip Technology PIC Macro Assembler V2.40 build 20220703182018 
Symbol Table                                                                                   Mon Mar 13 17:27:50 2023

                        _UART_Config_Transmitter 0D99                             ?_CapTouch_Read_Delta 0070  
                                            l124 0FC7                                              l204 062D  
                                            l212 01EB                                              l220 0E25  
                                            l133 0E41                                              l142 0D98  
                                            l151 0D0E                                              l127 030A  
                                            l119 0556                                              l215 023C  
                                            l160 0F36                                              l136 0ED4  
                                            l145 0DCD                                              l242 0D56  
                                            l154 0D19                                              l139 0DB7  
                                            l163 0E5D                                              l148 0DDC  
                                            l172 0EB6                                              l245 0D4A  
                                            l157 0F23                                              l166 0E98  
                                            l190 0161                                              l175 03B0  
                                            l169 0E0B                                              l265 0D7B  
                                            l195 0FFF                                              l604 0DC8  
                                            l550 0EF3                                              l199 0626  
                                            l553 07F1                                              l705 0F5E  
                                            l554 07F6                                              l715 05C6  
                                            l572 0DF3                                              l556 07FF  
                                            l559 0D20                                              l719 0F14  
                                            l568 0D12                                              l921 0F92  
                                            l665 07DD                                              l682 0D26  
                                            l668 0DA7                                              l685 0D2A  
                                            l943 0688                                              l679 0765  
                                            l972 045D                                              l982 04D9  
                                            _IIR 00C2                                              _PR2 001E  
                                            _PR6 041D                                              wreg 0009  
                                           l3001 0094                                             l1129 06D3  
                                           l3011 009F                                             l3021 00B9  
                                           l3013 00A5                                             l3031 00E8  
                                           l3015 00B6                                             l3007 0096  
                                           l3033 00EC                                             l3009 009A  
                                           l3043 0105                                             l3035 00F2  
                                           l3027 00BB                                             l3051 0164  
                                           l3211 07B5                                             l3045 0137  
                                           l3037 0103                                             l3029 00BF  
                                           l3061 0195                                             l3053 0164  
                                           l3301 0DBB                                             l3221 07C9  
                                           l3205 07A5                                             l3047 0157  
                                           l3071 01D7                                             l3063 01A0  
                                           l3055 0168                                             l3311 0E0E  
                                           l3231 0DA4                                             l3223 07CF  
                                           l3207 07AB                                             l3049 015B  
                                           l3073 01F6                                             l3065 01AB  
                                           l3057 0173                                             l3313 0E1A  
                                           l3305 0E0C                                             l3161 0EDB  
                                           l3233 0DA6                                             l3225 0D99  
                                           l3217 07B7                                             l3209 07B0  
                                           l3241 0566                                             l3321 0EF4  
                                           l3075 020A                                             l3067 01B3  
                                           l3059 017F                                             l3315 0E1F  
                                           l3163 0EE3                                             l3171 07E3  
                                           l3227 0D9B                                             l3219 07C5  
                                           l3251 05AA                                             l3243 0580  
                                           l3235 0557                                             l3323 0EF9  
                                           l3317 0D41                                             l2701 0F17  
                                           l3069 01CF                                             l3077 0218  
                                           l3165 0EEB                                             l3157 0ED5  
                                           l3181 07EC                                             l3173 07E4  
                                           l3229 0DA1                                             l3261 05BA  
                                           l3245 059C                                             l3237 0559  
                                           l3325 0EFD                                             l2703 0F22  
                                           l3271 0D6F                                             l3191 0DE3  
                                           l3159 0ED7                                             l3183 07F0  
                                           l3175 07E8                                             l3167 07DE  
                                           l3263 05BE                                             l3255 05B0  
                                           l3239 0561                                             l3247 05A0  
                                           l3327 0F09                                             l3329 0D4D  
                                           l2705 0F27                                             l2721 0F7B  
                                           l2713 0F5F                                             l2801 031E  
                                           l3273 0D75                                             l3193 0DEE  
                                           l3185 07F5                                             l3177 07E9  
                                           l3169 07E1                                             l3281 0756  
                                           l3265 05C2                                             l3257 05B2  
                                           l3249 05A8                                             l2707 0F2E  
                                           l2731 0450                                             l2723 0F8A  
                                           l2715 0F68                                             l2811 035B  
                                           l2803 0327                                             l3275 0D78  
                                           l3187 07FB                                             l3179 07EA  
                                           l3283 075D                                             l3259 05B4  
                                           l3291 0F37              CapTouch_ADC_Sample2@current_channel 0026  
                                           l2709 0F32                                             l2741 0480  
                                           l2733 0461                                             l2717 0F6C  
                                           l2821 0381                                             l2813 035F  
                                           l2805 032B                                             l3189 0DDD  
                                           l3269 0D1A                                             l3285 075E  
                                           l3277 071E                                             l3293 0F3A  
                                           l2751 04AB                                             l2743 0483  
                                           l2735 046C                                             l2727 044A  
                                           l2719 0F74                                             l2823 0382  
                                           l2815 0364                                             l2807 0330  
                                           l2831 0FCE                                             l3287 075F  
                                           l3279 0727                                             l2911 06A4  
                                           l2903 0689                                             l3295 0F49  
                                           l2761 04C6                                             l2753 04B3  
                                           l2745 048E                                             l2737 0470  
                                           l2729 044C                                             l2825 038C  
                                           l2817 0375                                             l2809 034A  
                                           l2833 0FEF                                             l2841 05CD  
                                           l3289 0762                                             l2913 06B6  
                                           l2905 0692                                             l3297 0F4E  
                                           l3561 03CB                                             l2763 04D1  
                                           l2755 04B4                                             l2747 0492  
                                           l2739 0478                                             l2771 02C5  
                                           l2827 0399                                             l2819 037E  
                                           l2835 0FF8                                             l2851 05FC  
                                           l2843 05D5                                             l3299 0DB8  
                                           l2915 06BE                                             l2907 0695  
                                           l3571 03EB                                             l3563 03CB  
                                           l3555 03B1                                             l2693 0E28  
                                           l2757 04BB                                             l2749 0499  
                                           l2781 0E55                                             l2829 0FCA  
                                           l2861 0620                                             l2853 0601  
                                           l2845 05DF                                             l2837 05C9  
                                           l2917 06C5                                             l2909 06A0  
                                           l3581 0425                                             l3573 03F3  
                                           l3565 03CB                                             l3557 03B4  
                    __end_of_CapTouch_ADC_Sample 0F37                                             l2791 0E9B  
                                           l2775 0D0C                                             l2759 04C1  
                                           l2767 023F                                             l2695 0EB9  
                                           l2783 0E59                                             l2951 0543  
                                           l2943 04DA                                             l2855 0609  
                                           l2847 05E4                                             l2839 05C9  
                                           l2871 0D0F                                             l2919 06CB  
                                           l3583 0436                                             l3575 0404  
                                           l3567 03CB                                             l3559 03B7  
                                           l2785 0E7D                                             l2777 0D13  
                                           l2769 0252                                             l2697 0DAA  
                                           l2793 030D                                             l2953 0545  
                                           l2857 0613                                             l2849 05F2  
                                           l2881 063F                                             l3585 043E  
                                           l3577 040C                                             l3569 03DA  
                                           l2971 0DC9                                             l2699 0D8C  
                                           l2787 0DF6                                             l2779 0E44  
                                           l2795 0311                                             l2955 054C  
                                           l2859 0618                                             l2891 066A  
                                           l2883 0642                                             l3579 041D  
                                           l2981 0DDB                                             l2973 0DCC  
                                           l2789 0E07                                             l2797 0314  
                                           l2965 0F95                                             l2957 0550  
                                           l2949 04DE                                             l2893 0672  
                                           l2885 064D                                             l2877 0D23  
                                           l2975 0DD1                                             l2799 0319  
                                           l2991 0088                                             l2983 0075  
                                           l2967 0FBD                                             l2959 0F93  
                                           l2895 0673                                             l2887 0651  
                                           l2879 062E                                             l2977 0DD4  
                                           l2993 008C                                             l2969 0FC1  
                                           l2897 067A                                             l2889 0658  
                                           l2979 0DDA                                             l2995 0092  
                                           l2899 0680                                             l2989 0077  
                                           STR_1 1000                                             STR_2 1015  
                                           STR_3 1015                                             STR_4 1015  
                                           STR_5 100F                                             STR_6 1012  
                    __end_of_CapTouch_ADC_Wakeup 0D0F                                             u2010 0F27  
                                           u2011 0F26                                             u2100 0492  
                                           u2020 0F6C                                             u2005 0F1A  
                                           u2101 0491                                             u2021 0F6B  
                                           u2120 04AB                                             u3000 07FB  
                                           u2121 04AA                                             u3001 07FA  
                                           u2050 0F8A                                             u3010 0DEE  
                                           u2115 0493                                             u2051 0F89  
                                           u2035 0F75                                             u3011 0DED  
                                           u2140 04C1                                             u2060 0450  
                                           u3100 0E25                                             u2300 0D2A  
                                           u2141 04C0                                             u2125 04A7  
                                           u2061 044F                                             u2045 0F7C  
                                           u2205 02D0                                             u3101 0E24  
                                           u2301 0D29                                             _LATA 010C  
                                           u2150 04C6                                             u2070 0461  
                                           u2230 0FEF                                             u2310 063F  
                                           u3110 0EF9                                             _LATB 010D  
                                           u2151 04C5                                             u2135 04B5  
                                           u2071 0460                                             u2215 02E7  
                                           u2231 0FEE                                             u2311 063E  
                                           u3111 0EF8                                             _LATC 010E  
                                           u2080 0480                                             u2240 05DF  
                                           u3040 07CF                                             u2400 06A4  
                                           u2081 047F                                             u2225 02FA  
                                           u2241 05DE                                             u3041 07CE  
                                           u2401 06A3                                             u2250 05E4  
                                           u2330 0651                                             u2410 06B6  
                                           u3050 0561                                             u2235 0FEB  
                                           u2251 05E3                                             u2331 0650  
                                           u2411 06B5                                             u3051 0560  
                                           u2260 05FC                                             u3060 05A8  
                                           u2165 0242                                             u2261 05FB  
                                           u2325 0643                                             u3061 05A7  
                                           u2270 0601                                             u2350 066A  
                                           u2430 06CB                                             u3070 05AF  
                                           u2095 0484                                             u2175 0266  
                                           u2271 0600                                             u2351 0669  
                                           u2431 06CA                                             u2415 06B2  
                                           u3071 05AE                                             u2600 00B6  
                                           u2520 0556                                             u2280 0613  
                                           u3080 073C                                             u2185 0296  
                                           u2601 00B5                                             u2521 0555  
                                           u2505 051C                                             u2281 0612  
                                           u2345 0652                                             u2425 06BF  
                                           u2290 0618                                             u2370 0680  
                                           u3090 0F5E                                             u2195 02B5  
                                           u2515 052E                                             u2291 0617  
                                           u2371 067F                                             u2355 0666  
                                           u3091 0F5D                                             u2620 00F2  
                                           u2380 0692                                             u2621 00F1  
                                           u2605 00B2                                             u2365 0674  
                                           u3085 0738                                             u2381 0691  
                                           u2630 0103                                             u2550 0FC7  
                                           u2710 01A0                                             _PIE0 0090  
                                           u2631 0102                                             u2615 00D5  
                                           u2551 0FC6                                             u2535 0F9E  
                                           u2711 019F                                             _PIE1 0091  
                                           u2560 0DD1                                             u2720 01AB  
                                           _PIE2 0092                                             u2561 0DD0  
                                           u2545 0FAF                                             u2721 01AA  
                                           u2705 0183                                             u2635 00FF  
                                           u2395 0696                                             u2580 0092  
                                           u2740 01D7                                             u2645 0110  
                                           u2581 0091                                             u2805 022D  
                                           u2741 01D6                                             u2670 0161  
                                           u2590 00A5                                             u2671 0160  
                                           u2655 0127                                             u2591 00A4  
                                           u2575 007A                                             u2735 01B6  
                                           u1944 0E2D                                             u2760 01F6  
                                           u2680 0173                                             u1945 0E2C  
                                           u2665 013F                                             u2761 01F5  
                                           u2681 0172                                             u1954 0E3A  
                                           u1955 0E39                                             u2755 01DA  
                                           u1964 0EBE                                             u1965 0EBD  
                                           u1974 0ECC                                             u2694 0178  
                                           u1975 0ECB                                             u2775 01F9  
                                           u2695 0177                                             u1984 0DAF  
                                           u2784 020F                                             u1985 0DAE  
                                           u2785 020E                                             u1994 0D91  
                                           i1l35 0009                                             u1995 0D90  
                                           u2795 021B                                             u2980 07F0  
                                           u2981 07EF                                             u2990 07F5  
                                           u2991 07F4                                             _PIR0 0010  
                                           _PIR1 0011                                             _PIR2 0012  
                                           u3897 0442                                             _UART 2720  
                                           _ISRs 0004                  ??_UART_Transmit_Unsigned_Number 0032  
                                           _main 03B1                                             fsr0h 0005  
                                           fsr1h 0007                                             indf0 0000  
                                           fsr0l 0004                                             indf1 0001  
                                           fsr1l 0006                                             btemp 007E  
 CapTouch_Set_Key_Pin_Output_Low@current_channel 0022                                             start 000B  
                          _Timebase_Timer_Config 07DE                     __end_of_CapTouch_Struct_Init 0557  
                         _CapTouch_Check_Trigger 05C7                        CapTouch_Calibration@i_230 0052  
                     __end_of_UART_Transmit_Byte 0D2B                            CapTouch_Struct_Init@i 0021  
                     __end_of_UART_Transmit_Text 0F5F                            ??_CapTouch_Read_Delta 0040  
                                          ?_ISRs 0070                         _Timebase_ISR_Executables 0766  
                   __end_of_CapTouch_ADC_Sample1 0E99                     __end_of_CapTouch_ADC_Sample2 0EB7  
                                __end_of___aldiv 04DA                                            _ADACT 009F  
                                          ?_main 0070                                            _ADRES 009B  
                                __end_of___lldiv 0689                                  __end_of___llmod 06D4  
                                          _T2CON 001F                                            _T6CON 041E  
                                          i1l632 0D89                                            i1l628 07A4  
                                          i1l593 0D0B                                            _TMR0H 0016  
                                          _TRISA 008C                                            _TRISB 008D  
                                          _TRISC 008E                                            _RXPPS 0E24  
                            ___lmul@multiplicand 0024                           ?_CapTouch_Scan_Sensors 005F  
                                          status 0003                                            wtemp0 007E  
          __end_of_Timebase_Get_SubSeconds_Value 0DC9                    _Timebase_Get_SubSeconds_Value 0DB8  
                                   __end_of_ISRs 000B       CapTouch_Set_Key_Pin_Analog@current_channel 0022  
                      ??_UART_Config_Transmitter 0020                                  __initialization 000D  
               CapTouch_Response@current_channel 004E                                     __end_of_main 044A  
                       __end_of_UART_Struct_Init 07DE                                           ??_ISRs 007B  
                     ??_CapTouch_IIR_Butterworth 0033         CapTouch_Precharge_SH_Cap@current_channel 0026  
                                         ??_main 0065                            CapTouch_Calibration@i 0050  
          CapTouch_IIR_Butterworth_Struct_Init@i 0021                                           _ADCON0 009D  
                                         _ADCON1 009E                                 ___llmod@dividend 0024  
                                         _ANSELA 018C                                           _T0CON0 0017  
                                         _T0CON1 0018                                           _RA1PPS 0E91  
                                         _RC1REG 0199                                           _RC1STA 019D  
                                         i1l1129 071D                                           i1l3201 0795  
                                         i1l3203 07A1                                i1___llmod@divisor 0070  
                                         i1l3333 0D7C                                           i1l3335 0D81  
                                         i1l3337 0D84                                           i1l3195 0766  
                                         i1l3197 076F                                           i1l3199 078C  
                                         i1l2931 06EE                                           i1l2923 06D4  
                                         i1l2933 0700                                           i1l2925 06DC  
                                         i1l2935 0708                                           i1l2927 06DF  
                                         i1l2937 070F                                           i1l2929 06EA  
                                         i1l2875 0D09                                           i1l2939 0715  
                                         i1l3587 0006                                           u302_20 078C  
                                         u302_21 078B                                           u303_20 07A1  
                                         u303_21 07A0                                           u312_20 0D81  
                                         u312_21 0D80                            __end_of_Timebase_Init 0D21  
                                         _INTCON 000B                                           _FVRCON 0117  
                                         u244_20 06DC                                           u244_21 06DB  
                                         u245_25 06E0                                           u246_20 06EE  
                                         u246_21 06ED                                           u247_20 0700  
                                         u247_21 06FF                                           u247_25 06FC  
                                         u248_25 0709                                           u249_20 0715  
                                         u249_21 0714                                           _SP1BRG 019B  
                              i1___llmod@counter 0079                                           _TX1REG 019A  
                                         _TX1STA 019E                           ?_Timebase_Timer_Config 0070  
  CapTouch_Get_Calibration_Value@current_channel 0022                                           _Buzzer 0066  
                              __end_of_UART_Init 0766                                           ___lmul 0F5F  
                                      ??___aldiv 0028                                        ??___lldiv 0028  
                                      ??___llmod 0028                                           _cut_in 0163  
                ??_CapTouch_Check_Touch_Duration 0055                                    _CapTouch_Init 0D6F  
                                  _CapTouch_Pins 006B       __end_of_Timebase_Interrupt_Service_Routine 0D8A  
           ??_Timebase_Interrupt_Service_Routine 007A              ?_Timebase_Interrupt_Service_Routine 0070  
             _Timebase_Interrupt_Service_Routine 0D7C                                __end_ofi1___llmod 071E  
                           _CapTouch_Struct_Init 04DA       CapTouch_Check_Touch_Duration@refernce_time 0051  
         __end_of_CapTouch_Get_Calibration_Value 0D4B                   _CapTouch_Get_Calibration_Value 0D3F  
                        __end_of__initialization 0071                             _CapTouch_ADC_Sample1 0E7B  
                           _CapTouch_ADC_Sample2 0E99                                   __pcstackCOMMON 0070  
                                   __pidataBANK0 0002                                     __pidataBANK1 0D35  
                                   __pidataBANK2 0E5E                                     __pidataBANK3 0D2B  
                 ?_Timebase_Get_SubSeconds_Value 0021             __end_of_CapTouch_ADC_Register_Config 0DDD  
                   _CapTouch_ADC_Register_Config 0DC9              __end_of_CapTouch_Set_Key_Pin_Analog 0E42  
                    _CapTouch_Set_Key_Pin_Analog 0E26                     __end_of_UART_Transmit_Number 0F15  
                                 ?_CapTouch_Init 0070              __end_of_CapTouch_Set_Key_Pin_Output 0ED5  
                    _CapTouch_Set_Key_Pin_Output 0EB7                            ?_CapTouch_Struct_Init 0070  
                   CapTouch_Scan_Sensors@channel 0064                                       __pbssBANK0 0066  
                                     __pbssBANK1 00A0                                       __pbssBANK2 0120  
                                     __pbssBANK3 01A0                                 UART_Init@BRG_VAL 0036  
                          ?_CapTouch_ADC_Sample1 0070                            ?_CapTouch_ADC_Sample2 0070  
                        ?_CapTouch_Check_Trigger 0070                       ??_Timebase_ISR_Executables 007A  
                                     __pmaintext 03B1     CapTouch_Check_Touch_Duration@current_channel 005E  
                         CapTouch_ADC_Sample@res 0023         CapTouch_Precharge_Button@current_channel 0026  
                                        ?___lmul 0020                                       __pintentry 0004  
                                 ___lmul@product 0028                    ?_CapTouch_ADC_Register_Config 0070  
                             i1___llmod@dividend 0074                          ??_CapTouch_Scan_Sensors 0063  
                             _UART_Transmit_Byte 0D21                                      _Segment_Val 0150  
                             _UART_Transmit_Text 0F37            __end_of_CapTouch_Check_Touch_Duration 023D  
                  _CapTouch_Check_Touch_Duration 0162                                          _PWM5DCH 0618  
                                        _PWM5DCL 0617                                          _PWM5CON 0619  
                                        _PWMTMRS 061F                              ?_UART_Transmit_Byte 0070  
                            ?_UART_Transmit_Text 0021                   __end_of_CapTouch_Check_Trigger 062E  
                                        _Cooling 007B                      __end_of_CapTouch_Read_Delta 03B1  
                                        ___aldiv 044A                                  ??_CapTouch_Init 0060  
                                        ___lldiv 062E                                          ___llmod 0689  
                           ??_UART_Transmit_Byte 0020                             ??_UART_Transmit_Text 0023  
                              ?_UART_Struct_Init 0070                                          __ptext1 0F37  
                                        __ptext2 0EF4                                          __ptext3 0557  
                                        __ptext4 0689                                          __ptext5 0D21  
                                        __ptext6 071E                                          __ptext7 062E  
                                        __ptext8 07A5                                          __ptext9 0D99  
                             ??_UART_Struct_Init 0020                                     _Cooling_Type 01A0  
                         ??_CapTouch_Struct_Init 0020                                          _cut_off 01B2  
                               ___aldiv@dividend 0024                                          clrloop0 0D58  
                           end_of_initialization 0071                          ??_Timebase_Timer_Config 0020  
                         ??_CapTouch_ADC_Sample1 0026                           ??_CapTouch_ADC_Sample2 0026  
                                        init_ram 0D63                             _UART_Transmit_Number 0EF4  
                                        initloop 0D64                                  ___lldiv@divisor 0020  
                                ___lldiv@counter 002D                                 ___aldiv@quotient 002B  
          CapTouch_Check_Touch_Duration@duration 005A                                        _UART_Init 071E  
                     __end_of_Timebase_Add_Token 0DF4                     __end_of_Timebase_Struct_Init 0EF4  
                 UART_Transmit_Unsigned_Number@i 003D                                        i1___llmod 06D4  
                 ?_CapTouch_Check_Touch_Duration 0051                                _CapTouch_Response 0FC8  
                          ?_UART_Transmit_Number 003E                        ?_CapTouch_IIR_Butterworth 002F  
                             ?_CapTouch_Response 0070                         ?_UART_Config_Transmitter 0070  
                     __end_of_CapTouch_ADC_Sleep 0D1A          __end_of_Timebase_Total_Tokens_Executing 0D13  
              ??_Timebase_Total_Tokens_Executing 0020                 ?_Timebase_Total_Tokens_Executing 0070  
                _Timebase_Total_Tokens_Executing 0D0F                              ??_CapTouch_Response 0049  
               ??_CapTouch_Get_Calibration_Value 0022                  ?_CapTouch_Get_Calibration_Value 0020  
                                 __end_of___lmul 0F93                                       ?_UART_Init 002E  
                     CapTouch_ADC_Sample@channel 0025                              start_initialization 000D  
                      __end_of_CapTouch_Response 1000                                       ?i1___llmod 0070  
                   __end_of_CapTouch_Calibration 0162              UART_Transmit_Unsigned_Number@digits 003B  
                                ___llmod@divisor 0020                                  ___llmod@counter 0029  
                     ?_CapTouch_Precharge_SH_Cap 0070     __end_of_CapTouch_IIR_Butterworth_Struct_Init 0FC8  
         ??_CapTouch_IIR_Butterworth_Struct_Init 0020            ?_CapTouch_IIR_Butterworth_Struct_Init 0070  
           _CapTouch_IIR_Butterworth_Struct_Init 0F93                                         ??___lmul 0028  
                     ?_CapTouch_Precharge_Button 0070            __end_of_UART_Transmit_Unsigned_Number 05C7  
                  _UART_Transmit_Unsigned_Number 0557                                      __pdataBANK0 006B  
                                    __pdataBANK1 00E3                                      __pdataBANK2 0150  
                                    __pdataBANK3 01B2                          CapTouch_Calibration@key 005C  
                        CapTouch_Calibration@sum 0054                                      __pbssBIGRAM 2720  
                            _CapTouch_ADC_Sample 0F15          __end_of_CapTouch_Get_RawDifferentialADC 0D57  
              ??_CapTouch_Get_RawDifferentialADC 0022                 ?_CapTouch_Get_RawDifferentialADC 0020  
                _CapTouch_Get_RawDifferentialADC 0D4B                                      __pbssCOMMON 007B  
                            _CapTouch_ADC_Wakeup 0D0C                                        ___latbits 0003  
                                  __pcstackBANK0 0020                    __end_of_CapTouch_Scan_Sensors 0E26  
                __end_of_UART_Config_Transmitter 0DA8                           ??_UART_Transmit_Number 0042  
                                  _Timebase_Init 0D1A                             _Timebase_Struct_Init 0ED5  
                CapTouch_IIR_Butterworth@channel 003F                             ?_CapTouch_ADC_Sample 0020  
                           ?_CapTouch_ADC_Wakeup 0070                                    UART_Init@BAUD 002E  
              __end_of_CapTouch_Precharge_SH_Cap 0E5E                                         ?___aldiv 0020  
                                       ?___lldiv 0020                __end_of_CapTouch_Precharge_Button 0E0C  
                                       ?___llmod 0020                                      ??_UART_Init 0032  
 CapTouch_Get_RawDifferentialADC@current_channel 0022                                         _BAUD1CON 019F  
                      ?_Timebase_ISR_Executables 0070                                      ??i1___llmod 0078  
                                 ?_Timebase_Init 0070                                  ___aldiv@divisor 0020  
                                ___aldiv@counter 0029                    __end_of_Timebase_Timer_Config 0800  
                          ?_Timebase_Struct_Init 0070                                        clear_ram0 0D57  
                          ??_CapTouch_ADC_Sample 0022                    CapTouch_IIR_Butterworth@input 002F  
                          ??_CapTouch_ADC_Wakeup 0020                         CapTouch_Read_Delta@delta 0042  
                            UART_Transmit_Text@i 0026                            __end_of_CapTouch_Init 0D7C  
                           _CapTouch_Calibration 0075                   ?_UART_Transmit_Unsigned_Number 002E  
                                       _CapTouch 0120                 __end_of_CapTouch_IIR_Butterworth 030B  
          CapTouch_Check_Trigger@current_channel 0050                                ___lmul@multiplier 0020  
                             _Timebase_Add_Token 0DDD  __end_of_Timebase_Set_Timer_Reset_Request_Status 0D0C  
      ??_Timebase_Set_Timer_Reset_Request_Status 0070         ?_Timebase_Set_Timer_Reset_Request_Status 0070  
        _Timebase_Set_Timer_Reset_Request_Status 0D09               CapTouch_Scan_Sensors@refernce_time 005F  
                            ?_Timebase_Add_Token 0070                          UART_Transmit_Number@num 003E  
                                       _Timebase 00D4                                     _SevenSegment 00A0  
                             _CapTouch_ADC_Sleep 0D13                     ?_CapTouch_Set_Key_Pin_Analog 0070  
                          ?_CapTouch_Calibration 0070                             ??_Timebase_Add_Token 0020  
                   ?_CapTouch_Set_Key_Pin_Output 0070                              ?_CapTouch_ADC_Sleep 0070  
                       ??_CapTouch_Check_Trigger 004F                                         __ptext10 0D1A  
                                       __ptext11 07DE                                         __ptext20 0D6F  
                                       __ptext12 0ED5                                         __ptext21 04DA  
                                       __ptext13 0DB8                                         __ptext30 023D  
                                       __ptext22 0F93                                         __ptext14 0DDD  
                                       __ptext31 0F5F                                         __ptext23 0075  
                                       __ptext15 0D0F                                         __ptext40 0D4B  
                                       __ptext32 044A                                         __ptext24 030B  
                                       __ptext16 0E0C                                         __ptext41 0D3F  
                                       __ptext33 0D0C                                         __ptext25 0E42  
                                       __ptext17 0162                                         __ptext34 0D13  
                                       __ptext26 0DA8                                         __ptext18 05C7  
                                       __ptext43 0D7C                                         __ptext35 0E99  
                                       __ptext27 0DF4                                         __ptext19 0FC8  
                                       __ptext44 0766                                         __ptext36 0E7B  
                                       __ptext28 0D8A                                         __ptext45 06D4  
                                       __ptext37 0E26                                         __ptext29 0EB7  
                                       __ptext46 0D09                                         __ptext38 0F15  
                                       __ptext39 0DC9                                  ??_Timebase_Init 0021  
                         ??_Timebase_Struct_Init 0020                             ??_CapTouch_ADC_Sleep 0020  
                    ??_CapTouch_Precharge_SH_Cap 0026                                         _set_temp 00E3  
                        CapTouch_Read_Delta@temp 0044                      ??_CapTouch_Precharge_Button 0026  
                                       int$flags 007E                      CapTouch_Calibration@key_231 005E  
                    CapTouch_Calibration@key_232 005F                      CapTouch_Calibration@key_228 005D  
                  ??_CapTouch_Set_Key_Pin_Analog 0020                    ??_CapTouch_Set_Key_Pin_Output 0020  
                       _CapTouch_IIR_Butterworth 023D       CapTouch_Set_Key_Pin_Output@current_channel 0022  
                 ??_CapTouch_ADC_Register_Config 0020                                 _UART_Struct_Init 07A5  
                                       intlevel1 0000                                 ___lldiv@dividend 0024  
                          UART_Transmit_Byte@val 0020                 __end_of_Timebase_ISR_Executables 07A5  
                         ??_CapTouch_Calibration 0049              CapTouch_Check_Trigger@current_state 004F  
                              UART_Struct_Init@i 0024                                    __pstringtext1 1000  
                                  __pstringtext2 1012                                    __pstringtext3 1015  
                                  __pstringtext4 0000                            UART_Transmit_Text@str 0021  
              UART_Transmit_Unsigned_Number@temp 003C              CapTouch_ADC_Sample1@current_channel 0026  
                               ___lldiv@quotient 0029                        _CapTouch_Precharge_SH_Cap 0E42  
       __end_of_CapTouch_Set_Key_Pin_Output_High 0D99               ??_CapTouch_Set_Key_Pin_Output_High 0020  
              ?_CapTouch_Set_Key_Pin_Output_High 0070                 _CapTouch_Set_Key_Pin_Output_High 0D8A  
                                   ___aldiv@sign 002A                        _CapTouch_Precharge_Button 0DF4  
                          _CapTouch_Scan_Sensors 0E0C                 UART_Transmit_Unsigned_Number@buf 0033  
                ??_Timebase_Get_SubSeconds_Value 0025                 UART_Transmit_Unsigned_Number@num 002E  
                            _CapTouch_Read_Delta 030B          __end_of_CapTouch_Set_Key_Pin_Output_Low 0DB8  
              ??_CapTouch_Set_Key_Pin_Output_Low 0020                 ?_CapTouch_Set_Key_Pin_Output_Low 0070  
                _CapTouch_Set_Key_Pin_Output_Low 0DA8  CapTouch_Set_Key_Pin_Output_High@current_channel 0022  
             CapTouch_Read_Delta@current_channel 0048  
